(lp0
S'http://www.purdue.edu/newsroom/releases/2012/Q2/-purdue-professors-discuss-greek-crisis,-world-economy.html\n'
p1
aS'http://www.purdue.edu/newsroom/releases/2012/Q3/13th-annual-meet-and-greet-planned-to-welcome-purdue-students-living-off-campus.html\n'
p2
aS'http://www.purdue.edu/newsroom/releases/2012/Q3/1980s-inspired-musical-will-make-you-wanna-rock.html\n'
p3
aS'http://www.purdue.edu/newsroom/releases/2012/Q3/2012-drought-surprises-and-reminds-people-of-past,-says-ag-historian.html\n'
p4
aS'http://www.purdue.edu/newsroom/releases/2012/Q2/5-purdue-students-who-break-records-include-olympic-swimmer.html\n'
p5
aS'http://www.purdue.edu/newsroom/releases/2012/Q2/50-indiana-high-school-students-to-attend-2012-purdue-research-park-entrepreneurship-academy.html\n'
p6
aS'http://www.purdue.edu/newsroom/releases/2012/Q2/500-local-campers-find-friends,-life-lessons-through-pals-program-.html\n'
p7
aS'http://www.purdue.edu/newsroom/releases/2012/Q2/abnormally-hot-spring-weather-changes-crop-pest-dynamics.html\n'
p8
aS'http://www.purdue.edu/newsroom/releases/2012/Q3/academy-seeks-students-interested-in-dairy-careers.html\n'
p9
aS'http://www.purdue.edu/newsroom/releases/2012/Q1/adm-agricultural-innovation-center-at-purdue-opens.html\n'
p10
aS'http://www.purdue.edu/newsroom/releases/2012/Q3/administrators-discuss-policies-in-place-to-report-suspected-child-and-sexual-abuse.html\n'
p11
aS'http://www.purdue.edu/newsroom/releases/2012/Q2/adoption-of-advanced-techniques-could-propel-crop-improvement.html\n'
p12
aS'http://www.purdue.edu/newsroom/releases/2012/Q2/agronomy-firm-integrates-national-weather-service-rainfall-data-with-yield-forecasting-app.html\n'
p13
aS'http://www.purdue.edu/newsroom/releases/2012/Q2/algorithm,-technology-being-developed-to-improve-speech-recognition-products.html\n'
p14
aS'http://www.purdue.edu/newsroom/releases/2012/Q3/all-92-indiana-counties-now-in-drought-state-expecting-rain.html\n'
p15
aS'http://www.purdue.edu/newsroom/releases/2012/Q3/alum-gives-named-professorship-gift-to-engineering-education.html\n'
p16
aS'http://www.purdue.edu/newsroom/releases/2012/Q3/applications-being-taken-for-disabled-veterans-program.html\n'
p17
aS'http://www.purdue.edu/newsroom/releases/2012/Q1/appointments,-honors-and-activities.html\n'
p18
aS'http://www.purdue.edu/newsroom/releases/2012/Q1/appointments,-honors-and-activities1.html\n'
p19
aS'http://www.purdue.edu/newsroom/releases/2012/Q2/appointments,-honors-and-activities2.html\n'
p20
aS'http://www.purdue.edu/newsroom/releases/2012/Q2/appointments,-honors-and-activities3.html\n'
p21
aS'http://www.purdue.edu/newsroom/releases/2012/Q3/appointments,-honors-and-activities4.html\n'
p22
aS'http://www.purdue.edu/newsroom/releases/2012/Q3/appointments,-honors-and-activities5.html\n'
p23
aS'http://www.purdue.edu/newsroom/releases/2012/Q3/appointments,-honors-and-activities6.html\n'
p24
aS'http://www.purdue.edu/newsroom/releases/2012/Q3/appointments,-honors-and-activities7.html\n'
p25
aS'http://www.purdue.edu/newsroom/releases/2012/Q3/appointments,-honors-and-activities8.html\n'
p26
aS'http://www.purdue.edu/newsroom/releases/2012/Q3/appointments,-honors-and-activities9.html\n'
p27
aS'http://www.purdue.edu/newsroom/releases/2012/Q3/armstrong-memorialized-at-purdue-service.html\n'
p28
aS'http://www.purdue.edu/newsroom/releases/2012/Q3/august-rains-give-relief-to-indiana-drought-still-far-from-over.html\n'
p29
aS'http://www.purdue.edu/newsroom/releases/2012/Q3/august-rains-rejuvenate-drought-stressed-soybean-crop.html\n'
p30
aS'http://www.purdue.edu/newsroom/releases/2012/Q3/author,-expert-on-global-food-needs-to-speak-at-purdue.html\n'
p31
aS'http://www.purdue.edu/newsroom/releases/2012/Q3/award-winning-author-to-present-show-at-purdue.html\n'
p32
aS'http://www.purdue.edu/newsroom/releases/2012/Q3/award-winning-vocal-ensemble-to-perform-at-purdue.html\n'
p33
aS'http://www.purdue.edu/newsroom/releases/2012/Q3/b.o.b.-to-perform-at-purdue-in-october.html\n'
p34
aS'http://www.purdue.edu/newsroom/releases/2012/Q2/basi-health-and-wellness-center-open-house.html\n'
p35
aS'http://www.purdue.edu/newsroom/releases/2012/Q3/bertino-named-director-of-discovery-parks-cyber-center.html\n'
p36
aS'http://www.purdue.edu/newsroom/releases/2012/Q3/biotechnology,-globalization-of-pharmaceutical-industry-subjects-of-purdues-annual-peck-symposium.html\n'
p37
aS"This is the official Web site of Purdue University, home of the Boilermakers, alma mater of the first and last men to walk on the moon, and proud member of the Big Ten Conference. Perennially ranked among the nation's top public universities and research institutions, Purdue serves as Indiana's land-, sea-, and space-grant university with a main campus in West Lafayette and locations across the state.\n"
p38
aS'http://www.purdue.edu/newsroom/releases/2012/Q3/body-heat,-fermentation-drive-new-drug-delivery-micropump.html\n'
p39
aS'http://www.purdue.edu/newsroom/releases/2012/Q3/brantley-gilbert-will-perform-at-purdue-with-uncle-kracker,-greg-bates-and-brian-davis.html\n'
p40
aS'http://www.purdue.edu/newsroom/releases/2012/Q3/butterflies-to-be-counted,-photographed-at-annual-encounter.html\n'
p41
aS'http://www.purdue.edu/newsroom/releases/2012/Q3/c-span-founder,-gov.-daniels-to-discuss-higher-education-during-public-interview.html\n'
p42
aS'http://www.purdue.edu/newsroom/releases/2012/Q3/calling-on-students-make-the-call.html\n'
p43
aS'http://www.purdue.edu/newsroom/releases/2012/Q3/callout-set-for-students-interested-in-burton-d.-morgan-business-plan-competition-.html\n'
p44
aS'http://www.purdue.edu/newsroom/releases/2012/Q2/campus-technology-magazine-picks-hotseat,-doubletake-and-mixable-as-top-innovations-for-2012.html\n'
p45
aS'http://www.purdue.edu/newsroom/releases/2012/Q3/career-night-to-introduce-pork-industry-to-students,-public.html\n'
p46
aS'http://www.purdue.edu/newsroom/releases/2012/Q3/caterpillar-gets-more-from-its-food-when-predator-is-on-the-prowl.html\n'
p47
aS'http://www.purdue.edu/newsroom/releases/2012/Q3/charcoal-rot-invades-soybean-fields,-resembles-drought-stress.html\n'
p48
aS'http://www.purdue.edu/newsroom/releases/2012/Q3/chinas-billy-graham-to-speak-at-purdue.html\n'
p49
aS'http://www.purdue.edu/newsroom/releases/2012/Q3/chinese-delegation-to-visit-purdue,-indianapolis.html\n'
p50
aS'http://www.purdue.edu/newsroom/releases/2012/Q3/city-works-with-purdue-to-create-high-tech-traffic-control-system.html\n'
p51
aS'http://www.purdue.edu/newsroom/releases/2012/Q3/civil-engineering-building-to-be-named-for-alumnus.html\n'
p52
aS'http://www.purdue.edu/newsroom/releases/2012/Q3/college-of-liberal-arts-names-2012-emerging-voice-award-winners.html\n'
p53
aS'http://www.purdue.edu/newsroom/releases/2012/Q3/college-students-balance-academic-success-with-grief,-ill-parents.html\n'
p54
aS'http://www.purdue.edu/newsroom/releases/2012/Q2/company-to-develop-commercial-replacement-for-leaded-general-aviation-gasoline.html\n'
p55
aS'http://www.purdue.edu/newsroom/releases/2012/Q3/conference-examines-woody-biomass-production,-challenges.html\n'
p56
aS'http://www.purdue.edu/newsroom/releases/2012/Q2/continued-dry-weather-takes-its-toll-on-indiana-forage-crops.html\n'
p57
aS'http://www.purdue.edu/newsroom/releases/2012/Q2/control-systems-engineering-firm-joins-purdue-research-park.html\n'
p58
aS'http://www.purdue.edu/newsroom/releases/2012/Q3/corn-silage-could-salvage-some-value-for-drought-damaged-crop.html\n'
p59
aS'http://www.purdue.edu/newsroom/releases/2012/Q3/cover-crops-help-retain-nitrate,-prepare-for-future-crops.html\n'
p60
aS'http://www.purdue.edu/newsroom/releases/2012/Q2/crisis-center-earns-first-purdue-community-partner-award.html\n'
p61
aS'http://www.purdue.edu/newsroom/releases/2012/Q3/crop-production-report,-myplate-exhibit-featured-aug.-10.html\n'
p62
aS'http://www.purdue.edu/newsroom/releases/2012/Q3/curiosity-brings-purdue-professor,-alumni-into-mars-mission.html\n'
p63
aS'http://www.purdue.edu/newsroom/releases/2012/Q3/curiositys-first-martian-steps-enabled-by-students-iphone-app.html\n'
p64
aS'http://www.purdue.edu/newsroom/releases/2012/Q3/cutting-livestock-greenhouse-gases-requires-effort-from-rich-and-poor-countries.html\n'
p65
aS'http://www.purdue.edu/newsroom/releases/2012/Q3/dairy-digest-turns-100-with-rhyming-podcast.html\n'
p66
aS'http://www.purdue.edu/newsroom/releases/2012/Q3/dairy-exchange-to-focus-on-succession-planning,-housing-facilities.html\n'
p67
aS'http://www.purdue.edu/newsroom/releases/2012/Q1/deboer-farmland-property-taxes-to-continue-rising-into-2015.html\n'
p68
aS'http://www.purdue.edu/newsroom/releases/2012/Q2/delaware-county-program-wins-purdue-award.html\n'
p69
aS'http://www.purdue.edu/newsroom/releases/2012/Q3/designer-fertilizer-producer-joins-purdue-research-park.html\n'
p70
aS'http://www.purdue.edu/newsroom/releases/2012/Q3/despite-drought,-pumpkin-crop-looks-strong-and-healthy.html\n'
p71
aS'http://www.purdue.edu/newsroom/releases/2012/Q3/detroit-theme-of-black-cultural-centers-fall-series.html\n'
p72
aS'http://www.purdue.edu/newsroom/releases/2012/Q3/digital-badges-show-students-skills-along-with-degree.html\n'
p73
aS'http://www.purdue.edu/newsroom/releases/2012/Q3/directory-lists-more-than-4,400-funding-opportunities-in-biomedical,-health-care-sectors.html\n'
p74
aS'http://www.purdue.edu/newsroom/releases/2012/Q3/disaster-recovery-expert-neighbors-are-key-to-beating-the-heat.html\n'
p75
aS'http://www.purdue.edu/newsroom/releases/2012/Q3/disaster-recovery-expert-on-rebuilding-7-years-after-katrina-.html\n'
p76
aS'http://www.purdue.edu/newsroom/releases/2012/Q3/discovery-park-center-receives-additional-10-million-in-research-funding-from-regenstrief-foundation.html\n'
p77
aS'http://www.purdue.edu/newsroom/releases/2012/Q3/double-crop-soybeans-struggle-to-mature-could-be-valuable-forage.html\n'
p78
aS'http://www.purdue.edu/newsroom/releases/2012/Q3/downtown-location-to-house-purdue-art-gallery.html\n'
p79
aS'http://www.purdue.edu/newsroom/releases/2012/Q3/drought-challenges-communities-to-plan-for-weather-extremes.html\n'
p80
aS'http://www.purdue.edu/newsroom/releases/2012/Q2/drought-could-cost-farmers-with-future-delivery-contracts.html\n'
p81
aS'http://www.purdue.edu/newsroom/releases/2012/Q3/drought-could-have-lasting-effect-on-trees,-specialist-says.html\n'
p82
aS'http://www.purdue.edu/newsroom/releases/2012/Q2/drought-could-limit-garden-plants-development-next-year.html\n'
p83
aS'http://www.purdue.edu/newsroom/releases/2012/Q3/drought-has-potential-three-year-tail-on-beef-production.html\n'
p84
aS'http://www.purdue.edu/newsroom/releases/2012/Q3/drought-has-repercussions-for-indiana-fish-and-wildlife.html\n'
p85
aS'http://www.purdue.edu/newsroom/releases/2012/Q2/drought-in-indiana-worsens-no-letup-in-sight.html\n'
p86
aS'http://www.purdue.edu/newsroom/releases/2012/Q3/drought-leaves-hay-and-livestock-producers-high-and-dry.html\n'
p87
aS'http://www.purdue.edu/newsroom/releases/2012/Q3/drought-monitor,-rain-outlook-a-mixed-bag-for-indiana.html\n'
p88
aS'http://www.purdue.edu/newsroom/releases/2012/Q3/drought-season-highlights-damage-caused-by-nematodes.html\n'
p89
aS'http://www.purdue.edu/newsroom/releases/2012/Q3/drought-stress-starting-to-set-in-on-specialty-and-produce-crops.html\n'
p90
aS'http://www.purdue.edu/newsroom/releases/2012/Q3/drought-threatens-financial-well-being-of-livestock-sector.html\n'
p91
aS'http://www.purdue.edu/newsroom/releases/2012/Q2/drought-widens-and-strengthens-grip-on-indiana.html\n'
p92
aS'http://www.purdue.edu/newsroom/releases/2012/Q3/eab-likely-in-most-lafayette-area-trees,-purdue-expert-says-.html\n'
p93
aS'http://www.purdue.edu/newsroom/releases/2012/Q3/early-weaning,-ddgs-feed-could-cut-costs-for-cattle-producers.html\n'
p94
aS'http://www.purdue.edu/newsroom/releases/2012/Q3/emergency-preparedness-safety-day-intended-to-help-students-take-proactive-approach-to-well-being.html\n'
p95
aS'http://www.purdue.edu/newsroom/releases/2012/Q1/energy-dense-biofuel-from-cellulose-close-to-being-economical.html\n'
p96
aS'http://www.purdue.edu/newsroom/releases/2012/Q3/energy-management-services-company-joins-purdue-research-park.html\n'
p97
aS'http://www.purdue.edu/newsroom/releases/2012/Q3/energy-monitoring-company-launches-ready-to-install-product,-upgrades-technology.html\n'
p98
aS'http://www.purdue.edu/newsroom/releases/2012/Q3/energy-veteran-to-lead-swift-fuels--.html\n'
p99
aS'http://www.purdue.edu/newsroom/releases/2012/Q2/entomologist-controlling-insects,-rodents-vital-to-healthy-livestock.html\n'
p100
aS'http://www.purdue.edu/newsroom/releases/2012/Q2/evidence-of-life-on-mars-could-come-from-martian-moon.html\n'
p101
aS'http://www.purdue.edu/newsroom/releases/2012/Q2/excited-about-a-cloudy-future-at-purdue-university-and-emc-bringing-massive-data-storage-to-students-and-faculty.html\n'
p102
aS'http://www.purdue.edu/newsroom/releases/2012/Q3/expert-back-to-school-buying-starting-now.html\n'
p103
aS'http://www.purdue.edu/newsroom/releases/2012/Q3/experts-to-speak-on-immigration-and-the-2012-election.html\n'
p104
aS'http://www.purdue.edu/newsroom/releases/2012/Q3/extreme-drought-spreads-across-indiana,-but-relief-in-sight.html\n'
p105
aS'http://www.purdue.edu/newsroom/releases/2012/Q3/faculty-fellow-at-discovery-learning-research-center-focuses-on-distance-learning-in-cancer,-chronic-disease-prevention.html\n'
p106
aS'http://www.purdue.edu/newsroom/releases/2012/Q3/fall-and-winter-weather-outlook-in-indiana-something-for-everyone.html\n'
p107
aS'http://www.purdue.edu/newsroom/releases/2012/Q3/farmers-on-the-lookout-for-aflatoxin-as-drought-continues.html\n'
p108
aS'http://www.purdue.edu/newsroom/releases/2012/Q3/field-day-to-focus-on-farm-management-to-increase-productivity-.html\n'
p109
aS'http://www.purdue.edu/newsroom/releases/2012/Q2/fireworks-danger-heightened-by-drought-conditions.html\n'
p110
aS'http://www.purdue.edu/newsroom/releases/2012/Q1/football-findings-suggest-concussions-caused-by-series-of-hits.html\n'
p111
aS'http://www.purdue.edu/newsroom/releases/2012/Q3/forage-crops-could-provide-opportunities-following-corn.html\n'
p112
aS'http://www.purdue.edu/newsroom/releases/2012/Q3/forum-to-highlight-preventing-farm-accidents,-injuries.html\n'
p113
aS'http://www.purdue.edu/newsroom/releases/2012/Q3/fourth-annual-indiana-innovation-showcase-to-highlight-startups-and-high-tech-investment-opportunities-.html\n'
p114
aS'http://www.purdue.edu/newsroom/releases/2012/Q3/freshman,-grad-student-enrollment-up-in-college-of-agriculture.html\n'
p115
aS'http://www.purdue.edu/newsroom/releases/2012/Q3/friendships,-community-ties-will-aid-those-in-hurricane-path.html\n'
p116
aS'http://www.purdue.edu/newsroom/releases/2012/Q3/genes-function-may-give-new-target-for-cancer-drugs.html\n'
p117
aS'http://www.purdue.edu/newsroom/releases/2012/Q1/global-food-security-center-hires-manager,-receives-grants.html\n'
p118
aS'http://www.purdue.edu/newsroom/releases/2012/Q3/glyphosate-resistant-superweeds-may-be-less-susceptible-to-diseases.html\n'
p119
aS'http://www.purdue.edu/newsroom/releases/2012/Q3/glyphosate-resistant-weeds-found-in-multiple-indiana-counties.html\n'
p120
aS'http://www.purdue.edu/newsroom/releases/2012/Q3/golf-outing-to-benefit-wounded-warrior-project,-purdue-and-ivy-tech-student-veterans-organizations.html\n'
p121
aS'http://www.purdue.edu/newsroom/releases/2012/Q3/graduate-engineering-ranked-among-best-for-hispanic-students.html\n'
p122
aS'http://www.purdue.edu/newsroom/releases/2012/Q3/greater-lafayette-libraries-now-offer-searchable-database-of-grants,-funding.html\n'
p123
aS'http://www.purdue.edu/newsroom/releases/2012/Q3/green-weeds-complicate-early-corn,-soybean-harvest.html\n'
p124
aS'http://www.purdue.edu/newsroom/releases/2012/Q2/harley-riders-climb-aboard-to-help-children-with-autism.html\n'
p125
aS'http://www.purdue.edu/newsroom/releases/2012/Q2/heat,-lack-of-rain-exaggerate-need-for-grazing-management.html\n'
p126
aS'http://www.purdue.edu/newsroom/releases/2012/Q2/heat-advisory-includes-purdue-campus,-surrounding-counties.html\n'
p127
aS'http://www.purdue.edu/newsroom/releases/2012/Q3/heat-and-drought-lead-to-ear-rot-potential-in-corn-grain,-silage.html\n'
p128
aS'http://www.purdue.edu/newsroom/releases/2012/Q3/high-tech-indiana-company-to-develop-device-for-use-in-international-space-station-lab.html\n'
p129
aS'http://www.purdue.edu/newsroom/releases/2012/Q2/home-lawn-during-drought-to-water-...-or-not.html\n'
p130
aS'http://www.purdue.edu/newsroom/releases/2012/Q3/hoosiers-asked-to-prepare-for-possible-weekend-flooding.html\n'
p131
aS'http://www.purdue.edu/newsroom/releases/2012/Q3/horse-owners-should-watch-for-symptoms-of-equine-disease.html\n'
p132
aS'http://www.purdue.edu/newsroom/releases/2012/Q3/hurt-corn-yield-projections-down,-but-not-as-much-as-expected.html\n'
p133
aS'http://www.purdue.edu/newsroom/releases/2012/Q3/increased-use-of-alternative-fuel-vehicles-lowers-2011-gasoline-consumption-levels-in-northern-indiana.html\n'
p134
aS'http://www.purdue.edu/newsroom/releases/2012/Q3/india-needs-system-reforms-in-education,-infrastructure,-culture-to-grow-innovation-and-commercialization-efforts.html\n'
p135
aS'http://www.purdue.edu/newsroom/releases/2012/Q3/indiana-cca-days-to-cover-latest-agronomy-topics.html\n'
p136
aS'http://www.purdue.edu/newsroom/releases/2012/Q3/indiana-company-provides-health-and-identity-cards-for-3-u.s.-olympic-teams.html\n'
p137
aS'http://www.purdue.edu/newsroom/releases/2012/Q3/indiana-sees-more-drought-relief,-but-dry-conditions-persist.html\n'
p138
aS'http://www.purdue.edu/newsroom/releases/2012/Q3/indiana-sweet-corn-abundant-now,-maybe-not-later-in-season.html\n'
p139
aS'http://www.purdue.edu/newsroom/releases/2012/Q3/indiana-winery-takes-top-honors-in-indy-international.html\n'
p140
aS'http://www.purdue.edu/newsroom/releases/2012/Q3/industrial-utility-monitoring-firm-hires-business-development-professional.html\n'
p141
aS'http://www.purdue.edu/newsroom/releases/2012/Q2/information-for-journalists-planning-to-cover-announcement-of-purdues-new-president.html\n'
p142
aS'http://www.purdue.edu/newsroom/releases/2012/Q3/initiative-offers-path-for-students-to-graduate-in-4-years.html\n'
p143
aS'http://www.purdue.edu/newsroom/releases/2012/Q3/innovation-fund-awards-nearly-200,000-to-help-commercialize-purdue-discoveries----.html\n'
p144
aS'http://www.purdue.edu/newsroom/releases/2012/Q1/innovation-promises-expanded-roles-for-microsensors.html\n'
p145
aS'http://www.purdue.edu/newsroom/releases/2012/Q3/insecticide-restrictions-important-as-soybeans-mature.html\n'
p146
aS'http://www.purdue.edu/newsroom/releases/2012/Q1/ipad-pharmacy-checklist-could-be-prescription-for-better-health.html\n'
p147
aS'http://www.purdue.edu/newsroom/releases/2012/Q2/irish-mezzo-soprano-naomi-oconnell-reschedules-purdue-performance.html\n'
p148
aS'http://www.purdue.edu/newsroom/releases/2012/Q3/iu-health-arnett-plans-investment-in-lyles-porter-hall.html\n'
p149
aS'http://www.purdue.edu/newsroom/releases/2012/Q3/ivdiagnostics-establishes-new-lab-to-monitor,-measure-cancer-cells.html\n'
p150
aS'http://www.purdue.edu/newsroom/releases/2012/Q1/ivdiagnostics-opens-office-in-purdue-research-park-of-northwest-indiana.html\n'
p151
aS"This is the official Web site of Purdue University, home of the Boilermakers, alma mater of the first and last men to walk on the moon, and proud member of the Big Ten Conference. Perennially ranked among the nation's top public universities and research institutions, Purdue serves as Indiana's land-, sea-, and space-grant university with a main campus in West Lafayette and locations across the state.\n"
p152
aS'http://www.purdue.edu/newsroom/releases/2012/Q3/kane-named-inaugural-director-of-lgbtq-center-at-purdue.html\n'
p153
aS'http://www.purdue.edu/newsroom/releases/2012/Q3/krannert-dinner-to-feature-alumni-awards,-keynote-from-martinez.html\n'
p154
aS'http://www.purdue.edu/newsroom/releases/2012/Q1/krannert-mba-program-improves-in-financial-times-rankings.html\n'
p155
aS'http://www.purdue.edu/newsroom/releases/2012/Q2/krannert-to-offer-updated-human-resource-management-program.html\n'
p156
aS'http://www.purdue.edu/newsroom/releases/2012/Q3/lechtenberg-named-purdues-acting-provost.html\n'
p157
aS'http://www.purdue.edu/newsroom/releases/2012/Q3/life-science-firm-that-received-federal,-purdue-funding-is-generating-revenue.html\n'
p158
aS'http://www.purdue.edu/newsroom/releases/2012/Q3/linda-aiken,-top-healthcare-policy-scholar,-to-speak-at-purdue.html\n'
p159
aS'http://www.purdue.edu/newsroom/releases/2012/Q3/linkedin-executive,-alumnus-to-visit-purdue.html\n'
p160
aS'http://www.purdue.edu/newsroom/releases/2012/Q3/low-oxygen-boosts-stem-cell-survival-in-muscular-dystrophy-therapy.html\n'
p161
aS'http://www.purdue.edu/newsroom/releases/2012/Q1/machine-tracing-history-of-rube-goldberg-competition-wins-local-contest.html\n'
p162
aS'http://www.purdue.edu/newsroom/releases/2012/Q2/media-access-info-for-purdue-presidential-announcement.html\n'
p163
aS'http://www.purdue.edu/newsroom/releases/2012/Q3/media-advisory-purdue-extension-to-hold-news-conference,-availability-on-drought.html\n'
p164
aS'http://www.purdue.edu/newsroom/releases/2012/Q3/media-advisory-purdue-researchers-part-of-search-for-higgs-boson-attending-wednesday-announcement.html\n'
p165
aS'http://www.purdue.edu/newsroom/releases/2012/Q3/meeting-to-discuss-feasibility,-future-of-food-hub.html\n'
p166
aS'http://www.purdue.edu/newsroom/releases/2012/Q2/mexican-voters-take-on-good-old-days-will-be-key-in-presidential-elections.html\n'
p167
aS'http://www.purdue.edu/newsroom/releases/2012/Q3/mind-over-matter-quench-summer-thirst,-but-measure-beverage-calories.html\n'
p168
aS'http://www.purdue.edu/newsroom/releases/2012/Q3/mintert-to-lead-purdue-extension-in-interim.html\n'
p169
aS'http://www.purdue.edu/newsroom/releases/2012/Q2/more-crops-affected-as-drought-spreads-throughout-indiana.html\n'
p170
aS'http://www.purdue.edu/newsroom/releases/2012/Q3/more-rain-needed-to-show-lessening-of-drought-in-indiana.html\n'
p171
aS'http://www.purdue.edu/newsroom/releases/2012/Q2/moving-making-friends-key-to-turning-new-house-into-a-home.html\n'
p172
aS'http://www.purdue.edu/newsroom/releases/2012/Q3/nano-machine-shop-shapes-nanowires,-ultrathin-films.html\n'
p173
aS'http://www.purdue.edu/newsroom/releases/2012/Q3/nanoresonators-might-improve-cell-phone-performance.html\n'
p174
aS'http://www.purdue.edu/newsroom/releases/2012/Q3/nasa-taps-indiana-firm-to-build-device-to-study-gravitys-effects.html\n'
p175
aS'http://www.purdue.edu/newsroom/releases/2012/Q3/neil-armstrong-memorial-service-set-for-aug.-27-on-purdue-campus.html\n'
p176
aS'http://www.purdue.edu/newsroom/releases/2012/Q3/neil-armstrong-memorial-service-to-be-broadcast-live-via-webcast.html\n'
p177
aS'http://www.purdue.edu/newsroom/releases/2012/Q3/never-before-seen-plant-metabolites-discovered.html\n'
p178
aS'http://www.purdue.edu/newsroom/releases/2012/Q3/new-buoy-offers-real-time-lake-michigan-data-in-indiana.html\n'
p179
aS'http://www.purdue.edu/newsroom/releases/2012/Q2/new-cfo-and-cafo-rules-require-operational-changes.html\n'
p180
aS'http://www.purdue.edu/newsroom/releases/2012/Q3/new-design-tool-nixes-mouse-users-create-shapes-with-hands-only.html\n'
p181
aS'http://www.purdue.edu/newsroom/releases/2012/Q1/new-hire-to-help-students-with-off-campus-housing-.html\n'
p182
aS'http://www.purdue.edu/newsroom/releases/2012/Q3/new-krannert-program-aimed-at-helping-undergrads-launch-careers.html\n'
p183
aS'http://www.purdue.edu/newsroom/releases/2012/Q1/new-microtweezers-build-tiny-structures.html\n'
p184
aS'http://www.purdue.edu/newsroom/releases/2012/Q3/new-purdue-developed-mobile-app-helps-identify-tropical-plants-of-costa-rica,-could-be-used-to-create-other-note-taking-apps.html\n'
p185
aS'http://www.purdue.edu/newsroom/releases/2012/Q3/new-purdue-efforts-focus-on-brazil.html\n'
p186
aS'http://www.purdue.edu/newsroom/releases/2012/Q3/new-purdue-research-park-based-firm-helps-surgeons-see-cancer-cells.html\n'
p187
aS'http://www.purdue.edu/newsroom/releases/2012/Q2/new-purdue-research-park-tenant-to-roll-out-technology-at-detroit-conference.html\n'
p188
aS'http://www.purdue.edu/newsroom/releases/2012/Q3/new-self-calibrating-mems-bringing-accuracy-to-nanotech.html\n'
p189
aS'http://www.purdue.edu/newsroom/releases/2012/Q3/new-soybean-virus-found,-confirmed-in-indiana.html\n'
p190
aS'http://www.purdue.edu/newsroom/releases/2012/Q3/new-students-begin-purdue-experience-with-orientation-program.html\n'
p191
aS'http://www.purdue.edu/newsroom/releases/2012/Q3/new-system-could-predict-solar-flares,-give-advance-warning.html\n'
p192
aS'http://www.purdue.edu/newsroom/releases/2012/Q3/new-tool-gives-structural-strength-to-3-d-printed-works.html\n'
p193
aS'http://www.purdue.edu/newsroom/releases/2012/Q1/news-template.html\n'
p194
aS'http://www.purdue.edu/newsroom/releases/2012/Q1/news-template1.html\n'
p195
aS'http://www.purdue.edu/newsroom/releases/2012/Q3/nielsen-indiana-drought-worst-on-crop-conditions-since-1988.html\n'
p196
aS'http://www.purdue.edu/newsroom/releases/2012/Q2/no-sleep-energy-bugs-drain-smartphone-batteries.html\n'
p197
aS'http://www.purdue.edu/newsroom/releases/2012/Q3/nominations-sought-for-purdues-hovde-award.html\n'
p198
aS'http://www.purdue.edu/newsroom/releases/2012/Q3/nominations-sought-for-top-purdue-ag-awards.html\n'
p199
aS'http://www.purdue.edu/newsroom/releases/2012/Q3/normal-fall-foliage-expected-despite-summers-drought.html\n'
p200
aS'http://www.purdue.edu/newsroom/releases/2012/Q2/nuclear-weapon-simulations-show-performance-in-molecular-detail.html\n'
p201
aS'http://www.purdue.edu/newsroom/releases/2012/Q3/ohio-state,-purdue-partner-as-farm-science-review-turns-50.html\n'
p202
aS'http://www.purdue.edu/newsroom/releases/2012/Q3/online-app-helps-agricultural-growers-track,-manage-insect-populations-.html\n'
p203
aS'http://www.purdue.edu/newsroom/releases/2012/Q3/op-ed-understanding-media-violence.html\n'
p204
aS'http://www.purdue.edu/newsroom/releases/2012/Q3/organizers-hope-statue-of-purdues-founder-connects-him,-students.html\n'
p205
aS'http://www.purdue.edu/newsroom/releases/2012/Q1/pill-some-day-may-prevent-serious-foodborne-illness,-scientist-says.html\n'
p206
aS'http://www.purdue.edu/newsroom/releases/2012/Q3/poor-pollination-leads-to-moldy-growth-in-corn.html\n'
p207
aS'http://www.purdue.edu/newsroom/releases/2012/Q3/prof-be-wary-of-calling-japans-nuclear-disaster-a-cultural-problem.html\n'
p208
aS'http://www.purdue.edu/newsroom/releases/2012/Q3/prof-be-wary-when-disgust-tactics-used-in-campaigning.html\n'
p209
aS'http://www.purdue.edu/newsroom/releases/2012/Q3/prof-movie-violence-plays-a-role-in-real-life.html\n'
p210
aS'http://www.purdue.edu/newsroom/releases/2012/Q3/prof-rewriting-history-by-altering-penn-state-record-is-risky.html\n'
p211
aS'http://www.purdue.edu/newsroom/releases/2012/Q3/prof-utilizing-former-presidents-in-campaign-plays-to-strengths.html\n'
p212
aS'http://www.purdue.edu/newsroom/releases/2012/Q3/professor-named-as-next-entrepreneur-in-residence-by-purdues-burton-d.-morgan-center.html\n'
p213
aS'http://www.purdue.edu/newsroom/releases/2012/Q2/program-at-purdue-to-train-grad-students-in-food-security.html\n'
p214
aS'http://www.purdue.edu/newsroom/releases/2012/Q2/program-for-youth-with-disabilities-offers-summer-session.html\n'
p215
aS'http://www.purdue.edu/newsroom/releases/2012/Q3/public-asked-to-choose-official-purdue-tartan.html\n'
p216
aS'http://www.purdue.edu/newsroom/releases/2012/Q3/purdue,-community-leaders-join-to-announce-spirit-contest.html\n'
p217
aS'http://www.purdue.edu/newsroom/releases/2012/Q3/purdue,-community-officials-to-introduce-new-site-for-downtown-art-gallery.html\n'
p218
aS'http://www.purdue.edu/newsroom/releases/2012/Q3/purdue,-iu-health-arnett-launch-colorectal-cancer-research-partnership-.html\n'
p219
aS'http://www.purdue.edu/newsroom/releases/2012/Q2/purdue,-unc-charlotte-professors-lead-voluntary-code-of-ethics-effort-for-journals.html\n'
p220
aS'http://www.purdue.edu/newsroom/releases/2012/Q3/purdue,-west-lafayette-to-welcome-students-living-off-campus.html\n'
p221
aS'http://www.purdue.edu/newsroom/releases/2012/Q1/purdue-ag,-biological-engineering-earns-top-ranking-again.html\n'
p222
aS'http://www.purdue.edu/newsroom/releases/2012/Q3/purdue-again-urges-bicycle,-pedestrian-safety.html\n'
p223
aS'http://www.purdue.edu/newsroom/releases/2012/Q1/purdue-agriculture-and-extension-events.html\n'
p224
aS'http://www.purdue.edu/newsroom/releases/2012/Q1/purdue-announces-energy-master-plan,-seeks-public-comment.html\n'
p225
aS'http://www.purdue.edu/newsroom/releases/2012/Q3/purdue-apps-aiding-law-enforcement,-public-safety-agencies.html\n'
p226
aS'http://www.purdue.edu/newsroom/releases/2012/Q1/purdue-awards-degrees,-honors-students.html\n'
p227
aS'http://www.purdue.edu/newsroom/releases/2012/Q3/purdue-band-day-packs-musicians-from-end-zone-to-end-zone.html\n'
p228
aS'http://www.purdue.edu/newsroom/releases/2012/Q3/purdue-band-members-to-fly-worlds-largest-drum-into-largest-lake.html\n'
p229
aS"This is the official Web site of Purdue University, home of the Boilermakers, alma mater of the first and last men to walk on the moon, and proud member of the Big Ten Conference. Perennially ranked among the nation's top public universities and research institutions, Purdue serves as Indiana's land-, sea-, and space-grant university with a main campus in West Lafayette and locations across the state.\n"
p230
aS'http://www.purdue.edu/newsroom/releases/2012/Q3/purdue-brings-peer-institutions-together-for-future-graduate-students.html\n'
p231
aS'http://www.purdue.edu/newsroom/releases/2012/Q1/purdue-changes-process-for-parking-citations.html\n'
p232
aS'http://www.purdue.edu/newsroom/releases/2012/Q3/purdue-chef-suggests-putting-on-the-dog-for-your-tailgate.html\n'
p233
aS'http://www.purdue.edu/newsroom/releases/2012/Q3/purdue-college-of-veterinary-medicines-priority-4-paws-to-benefit-animal-shelters,-students.html\n'
p234
aS'http://www.purdue.edu/newsroom/releases/2012/Q3/purdue-continues-enhancement-of-armstrong-papers,-those-of-other-historical-flight-figures.html\n'
p235
aS'http://www.purdue.edu/newsroom/releases/2012/Q3/purdue-continues-trend-of-high-caliber-students,-including-many-of-the-states-best.html\n'
p236
aS'http://www.purdue.edu/newsroom/releases/2012/Q1/purdue-convocations-announces-its-2012-13-season.html\n'
p237
aS'http://www.purdue.edu/newsroom/releases/2012/Q3/purdue-convocations-offers-ways-for-students-to-get-involved.html\n'
p238
aS'http://www.purdue.edu/newsroom/releases/2012/Q3/purdue-convocations-to-kick-off-110th-season-with-green-days-american-idiot.html\n'
p239
aS'http://www.purdue.edu/newsroom/releases/2012/Q3/purdue-creates-graduate-certificate-in-hybrid-vehicles.html\n'
p240
aS'http://www.purdue.edu/newsroom/releases/2012/Q3/purdue-day-at-indiana-state-fair-set-for-aug.-10.html\n'
p241
aS'http://www.purdue.edu/newsroom/releases/2012/Q3/purdue-designed-fiber-may-improve-digestive-health.html\n'
p242
aS'http://www.purdue.edu/newsroom/releases/2012/Q3/purdue-donations-of-nearly-300-million-second-highest-in-university-history.html\n'
p243
aS'http://www.purdue.edu/newsroom/releases/2012/Q3/purdue-economist-predicts-record-losses-for-pork-industry.html\n'
p244
aS'http://www.purdue.edu/newsroom/releases/2012/Q2/purdue-enterprise-co.-matches-faculty-consultants,-businesses.html\n'
p245
aS'http://www.purdue.edu/newsroom/releases/2012/Q3/purdue-entomology,-engineering-professors-to-receive-presidential-research-awards.html\n'
p246
aS'http://www.purdue.edu/newsroom/releases/2012/Q1/purdue-events-calendar.html\n'
p247
aS'http://www.purdue.edu/newsroom/releases/2012/Q3/purdue-exhibit-shows-how-to-make-better-food-choices.html\n'
p248
aS'http://www.purdue.edu/newsroom/releases/2012/Q3/purdue-expert-can-speak-about-arsenic-in-rice.html\n'
p249
aS'http://www.purdue.edu/newsroom/releases/2012/Q2/purdue-expert-making-a-difference-key-to-attracting-young-women-to-engineering,-science.html\n'
p250
aS'http://www.purdue.edu/newsroom/releases/2012/Q3/purdue-expert-obama,-romney-appeal-to-different-voter-emotions.html\n'
p251
aS'http://www.purdue.edu/newsroom/releases/2012/Q3/purdue-expert-replacement-ref-controversy-could-be-good-for-nfl.html\n'
p252
aS'http://www.purdue.edu/newsroom/releases/2012/Q1/purdue-expert-says-super-bowl-ads-may-not-be-worth-the-money.html\n'
p253
aS'http://www.purdue.edu/newsroom/releases/2012/Q2/purdue-expert-to-speak-at-conference-on-bioeconomy.html\n'
p254
aS'http://www.purdue.edu/newsroom/releases/2012/Q3/purdue-expert-urges-safety-when-mowing-near-water,-slopes.html\n'
p255
aS'http://www.purdue.edu/newsroom/releases/2012/Q3/purdue-experts-crop-report-dismal,-but-not-unexpected.html\n'
p256
aS'http://www.purdue.edu/newsroom/releases/2012/Q3/purdue-experts-remind-about-proper-food-handling-amid-salmonellosis-outbreak.html\n'
p257
aS'http://www.purdue.edu/newsroom/releases/2012/Q2/purdue-experts-still-some-time-left-to-rebound-from-drought-.html\n'
p258
aS'http://www.purdue.edu/newsroom/releases/2012/Q3/purdue-extension-has-advice-for-repairing-drought-damaged-lawns.html\n'
p259
aS'http://www.purdue.edu/newsroom/releases/2012/Q3/purdue-extension-has-qa-guide-on-salmonellosis-outbreak.html\n'
p260
aS'http://www.purdue.edu/newsroom/releases/2012/Q3/purdue-extension-holds-regional-meetings-on-drought.html\n'
p261
aS'http://www.purdue.edu/newsroom/releases/2012/Q3/purdue-extension-publication-a-resource-for-pesticide-users.html\n'
p262
aS'http://www.purdue.edu/newsroom/releases/2012/Q2/purdue-extension-starts-website-for-information-on-drought.html\n'
p263
aS'http://www.purdue.edu/newsroom/releases/2012/Q3/purdue-extension-to-host-southern-indiana-grazing-workshop.html\n'
p264
aS'http://www.purdue.edu/newsroom/releases/2012/Q3/purdue-extension-to-offer-conservation-drainage-field-day.html\n'
p265
aS'http://www.purdue.edu/newsroom/releases/2012/Q3/purdue-fire-chief-urges-fire-prevention,-safety.html\n'
p266
aS'http://www.purdue.edu/newsroom/releases/2012/Q3/purdue-focuses-on-growing-global-leaders-at-2012-indiana-black-expo.html\n'
p267
aS'http://www.purdue.edu/newsroom/releases/2012/Q3/purdue-galleries-begins-new-season-of-exhibits-with-changes.html\n'
p268
aS'http://www.purdue.edu/newsroom/releases/2012/Q3/purdue-gets-5.2-million-to-develop-new-biofuel-process.html\n'
p269
aS'http://www.purdue.edu/newsroom/releases/2012/Q3/purdue-graduates-develop-game,-create-their-own-jobs.html\n'
p270
aS'http://www.purdue.edu/newsroom/releases/2012/Q3/purdue-graduates-urged-to-seek-opportunities,-embrace-change.html\n'
p271
aS'http://www.purdue.edu/newsroom/releases/2012/Q3/purdue-healthcare-technical-assistance-program-changes-name-becomes-purdue-healthcare-advisors.html\n'
p272
aS'http://www.purdue.edu/newsroom/releases/2012/Q3/purdue-history-prof-to-appear-on-history-detectives.html\n'
p273
aS'http://www.purdue.edu/newsroom/releases/2012/Q1/purdue-in-princeton-reviews-top-150-best-value-colleges.html\n'
p274
aS'http://www.purdue.edu/newsroom/releases/2012/Q3/purdue-in-top-100-of-qs-world-university-rankings.html\n'
p275
aS'http://www.purdue.edu/newsroom/releases/2012/Q1/purdue-innovation-fund-awards-nearly-500,000-for-research-in-diabetes,-concussions,-cancer-and-7-other-projects.html\n'
p276
aS'http://www.purdue.edu/newsroom/releases/2012/Q3/purdue-innovations-to-be-showcased-aug.-21-for-licensing,-commercialization-deals.html\n'
p277
aS'http://www.purdue.edu/newsroom/releases/2012/Q3/purdue-joins-center-for-excellence-in-education-for-bite-of-science-event-to-strengthen-science-teaching.html\n'
p278
aS'http://www.purdue.edu/newsroom/releases/2012/Q3/purdue-memorial-unions-summer-concert-series-opens-july-11.html\n'
p279
aS'http://www.purdue.edu/newsroom/releases/2012/Q3/purdue-mourns-alumnus-neil-armstrong.html\n'
p280
aS'../../../assets/css/reset.css\n'
p281
aS"This is the official Web site of Purdue University, home of the Boilermakers, alma mater of the first and last men to walk on the moon, and proud member of the Big Ten Conference. Perennially ranked among the nation's top public universities and research institutions, Purdue serves as Indiana's land-, sea-, and space-grant university with a main campus in West Lafayette and locations across the state.\n"
p282
aS'http://www.purdue.edu/newsroom/releases/2012/Q3/purdue-offering-new-degree-in-environmental-and-ecological-engineering.html\n'
p283
aS'http://www.purdue.edu/newsroom/releases/2012/Q3/purdue-offers-rides-in-plane-model-in-which-armstrong-took-first-flight.html\n'
p284
aS'http://www.purdue.edu/newsroom/releases/2012/Q3/purdue-physicists-part-of-discovery-of-new-particle-that-could-be-higgs-boson.html\n'
p285
aS'http://www.purdue.edu/newsroom/releases/2012/Q2/purdue-plans-professorship-in-honor-of-lechtenberg.html\n'
p286
aS'http://www.purdue.edu/newsroom/releases/2012/Q3/purdue-police-offer-help,-resources-when-needed.html\n'
p287
aS'http://www.purdue.edu/newsroom/releases/2012/Q2/purdue-police-offer-rape-aggression-defense-training.html\n'
p288
aS'http://www.purdue.edu/newsroom/releases/2012/Q3/purdue-prepares-funding-request-for-state.html\n'
p289
aS'http://www.purdue.edu/newsroom/releases/2012/Q3/purdue-president-to-graduates-seek-opportunities,-embrace-change-.html\n'
p290
aS'http://www.purdue.edu/newsroom/releases/2012/Q1/purdue-professors-to-advance-breast-cancer-research-partnership-through-trip-to-ghana.html\n'
p291
aS'http://www.purdue.edu/newsroom/releases/2012/Q3/purdue-ranked-among-top-universities-in-nation.html\n'
p292
aS'http://www.purdue.edu/newsroom/releases/2012/Q3/purdue-recognizes-five-new-boilermakers.html\n'
p293
aS'http://www.purdue.edu/newsroom/releases/2012/Q3/purdue-recognizes-national-disability-employment-awareness-month-with-workshops.html\n'
p294
aS'http://www.purdue.edu/newsroom/releases/2012/Q3/purdue-recognizes-professors-who-make-solutions-to-everyday-problems-across-the-world.html\n'
p295
aS'http://www.purdue.edu/newsroom/releases/2012/Q3/purdue-research-park-entrepreneurship-academy-awards-vouchers-to-indiana-high-school-students.html\n'
p296
aS'http://www.purdue.edu/newsroom/releases/2012/Q2/purdue-research-park-entrepreneurship-academy-business-plan-competition-friday,-june-29.html\n'
p297
aS'http://www.purdue.edu/newsroom/releases/2012/Q2/purdue-research-park-recognizes-50-years-of-innovation-and-job-creation.html\n'
p298
aS'http://www.purdue.edu/newsroom/releases/2012/Q2/purdue-research-supports-key-element-of-concussion-lawsuit.html\n'
p299
aS'http://www.purdue.edu/newsroom/releases/2012/Q1/purdue-researcher-helps-robots-see-in-3-d-like-humans.html\n'
p300
aS'http://www.purdue.edu/newsroom/releases/2012/Q3/purdue-researcher-named-division-director-at-nasa.html\n'
p301
aS'http://www.purdue.edu/newsroom/releases/2012/Q2/purdue-retirees-honor-department-of-nutrition-science.html\n'
p302
aS'http://www.purdue.edu/newsroom/releases/2012/Q3/purdue-rises-to-56th-in-shanghai-world-university-rankings.html\n'
p303
aS'http://www.purdue.edu/newsroom/releases/2012/Q3/purdue-scientists-working-to-make-drought-resistant-crops.html\n'
p304
aS'http://www.purdue.edu/newsroom/releases/2012/Q3/purdue-specialists-have-array-of-expertise-in-salmonella.html\n'
p305
aS'http://www.purdue.edu/newsroom/releases/2012/Q3/purdue-spirit-community-contest-kicks-off.html\n'
p306
aS'http://www.purdue.edu/newsroom/releases/2012/Q2/purdue-students-embark-on-womens-cross-country-air-race.html\n'
p307
aS'http://www.purdue.edu/newsroom/releases/2012/Q3/purdue-students-invited-to-sept.-13-callout-for-100,000-competition.html\n'
p308
aS'http://www.purdue.edu/newsroom/releases/2012/Q2/purdue-students-make-lafayette-home-super-energy-efficient,-tours-available.html\n'
p309
aS'http://www.purdue.edu/newsroom/releases/2012/Q2/purdue-survey-farmland-purchases-expected-to-continue.html\n'
p310
aS'http://www.purdue.edu/newsroom/releases/2012/Q2/purdue-tap-expands-displaced-worker-green-training.html\n'
p311
aS'http://www.purdue.edu/newsroom/releases/2012/Q2/purdue-tap-offers-online-training-program.html\n'
p312
aS'http://www.purdue.edu/newsroom/releases/2012/Q3/purdue-tap-to-help-businesses-utilize-new-online-marketplace.html\n'
p313
aS'http://www.purdue.edu/newsroom/releases/2012/Q2/purdue-tapvincennes-university-add-southwest-indiana-manager.html\n'
p314
aS'http://www.purdue.edu/newsroom/releases/2012/Q3/purdue-theatre-to-present-a-midsummer-nights-dream.html\n'
p315
aS'http://www.purdue.edu/newsroom/releases/2012/Q3/purdue-to-celebrate-constitution-day.html\n'
p316
aS'http://www.purdue.edu/newsroom/releases/2012/Q2/purdue-to-move-art-gallery-downtown.html\n'
p317
aS'http://www.purdue.edu/newsroom/releases/2012/Q3/purdue-to-offer-energy-efficiency-workshop,-home-tours.html\n'
p318
aS'http://www.purdue.edu/newsroom/releases/2012/Q3/purdue-to-offer-evening-six-sigma-training-in-fort-wayne.html\n'
p319
aS'http://www.purdue.edu/newsroom/releases/2012/Q3/purdue-to-offer-lean-product-development-workshops.html\n'
p320
aS'http://www.purdue.edu/newsroom/releases/2012/Q3/purdue-to-offer-six-sigma-training-in-lafayette.html\n'
p321
aS'http://www.purdue.edu/newsroom/releases/2012/Q3/purdue-to-participate-in-celebrate-science-indiana.html\n'
p322
aS'http://www.purdue.edu/newsroom/releases/2012/Q3/purdue-to-test-emergency-all-hazards-outdoor-sirens-during-boiler-gold-rush.html\n'
p323
aS'http://www.purdue.edu/newsroom/releases/2012/Q1/purdue-trimester-plan-will-accelerate-time-to-degree,-enhance-educational-opportunities.html\n'
p324
aS'http://www.purdue.edu/newsroom/releases/2012/Q2/purdue-trustees-approve-construction-of-life-sciences-buildings.html\n'
p325
aS'http://www.purdue.edu/newsroom/releases/2012/Q3/purdue-trustees-approve-new-residence-hall,-food-services-building.html\n'
p326
aS'http://www.purdue.edu/newsroom/releases/2012/Q2/purdue-workshop-prepares-high-school-teachers,-students-for-global-synthetic-biology-competition.html\n'
p327
aS'http://www.purdue.edu/newsroom/releases/2012/Q3/purdue-workshop-to-focus-on-role-of-simulation-in-addressing-challenges-of-photovoltaic-science,-technology-and-manufacturing.html\n'
p328
aS'http://www.purdue.edu/newsroom/releases/2012/Q3/purdues-emerging-innovations-fund-sets-aug.-24-application-deadline.html\n'
p329
aS'http://www.purdue.edu/newsroom/releases/2012/Q3/purdues-latino-cultural-center-to-celebrate-10th-anniversary.html\n'
p330
aS'http://www.purdue.edu/newsroom/releases/2012/Q3/purdues-mep-names-associate-director-of-account-management.html\n'
p331
aS'http://www.purdue.edu/newsroom/releases/2012/Q3/purdues-science-on-tap-talk-to-focus-on-efforts-to-breed-hardier-honeybees.html\n'
p332
aS'http://www.purdue.edu/newsroom/releases/2012/Q3/purdues-shell-energy-day-to-highlight-new-frontiers-of-natural-gas-exploration-and-renewables.html\n'
p333
aS'http://www.purdue.edu/newsroom/releases/2012/Q3/rain-brings-relief-to-indiana,-but-drought-continues.html\n'
p334
aS'http://www.purdue.edu/newsroom/releases/2012/Q1/rap-music-powers-rhythmic-action-of-medical-sensor.html\n'
p335
aS'http://www.purdue.edu/newsroom/releases/2012/Q2/rapidly-cooling-eggs-can-double-shelf-life,-decrease-risk-of-illness1.html\n'
p336
aS'http://www.purdue.edu/newsroom/releases/2012/Q3/raymond-selected-as-new-director-of-discovery-parks-center-for-environment.html\n'
p337
aS'http://www.purdue.edu/newsroom/releases/2012/Q2/rebuilding-from-western-wildfires-begins-now-with-friendships,-social-networks.html\n'
p338
aS'http://www.purdue.edu/newsroom/releases/2012/Q3/recreational-center-to-begin-phased-opening-of-completed-areas.html\n'
p339
aS'http://www.purdue.edu/newsroom/releases/2012/Q3/red-tail-squadron-flying-to-purdue-to-honor-tuskegee-airmen.html\n'
p340
aS'http://www.purdue.edu/newsroom/releases/2012/Q3/reduced-cattle-herd-could-mean-bigger-profits-starting-late-2013.html\n'
p341
aS'http://www.purdue.edu/newsroom/releases/2012/Q3/regenstrief-launches-hospital-research-community-to-improve-infusion-pump-drug-delivery-system.html\n'
p342
aS'http://www.purdue.edu/newsroom/releases/2012/Q3/report-corn-ethanol-waivers-affect-on-corn-prices-uncertain.html\n'
p343
aS'http://www.purdue.edu/newsroom/releases/2012/Q3/reporters-calendar--purdue-events-for-journalists.html\n'
p344
aS'http://www.purdue.edu/newsroom/releases/2012/Q1/reporters-calendar-purdue-events-for-journalists1.html\n'
p345
aS'http://www.purdue.edu/newsroom/releases/2012/Q3/research-fungicides-helpful-when-diseases-are-present.html\n'
p346
aS'http://www.purdue.edu/newsroom/releases/2012/Q3/research-powerhouses-join-forces-in-new-multistate-venture.html\n'
p347
aS'http://www.purdue.edu/newsroom/releases/2012/Q3/researchers-fish-eye-view-could-offer-insights-for-human-vision.html\n'
p348
aS'http://www.purdue.edu/newsroom/releases/2012/Q2/researchers-sorghum-should-be-in-the-mix-as-a-biofuel-crop.html\n'
p349
aS'http://www.purdue.edu/newsroom/releases/2012/Q3/restaurant-smoking-bans-help-snuff-out-european-youth-smoking.html\n'
p350
aS'http://www.purdue.edu/newsroom/releases/2012/Q2/reward-offered-for-information-leading-to-prosecution-in-alleged-car-theft,-arson.html\n'
p351
aS'http://www.purdue.edu/newsroom/releases/2012/Q3/rotc-accepting-hall-of-fame-nominations.html\n'
p352
aS'http://www.purdue.edu/newsroom/releases/2012/Q1/rube-goldberg-contest-at-purdue.html\n'
p353
aS'http://www.purdue.edu/newsroom/releases/2012/Q3/russian-students-visit-purdue,-purdue-research-park-to-spark-entrepreneurial-learning.html\n'
p354
aS'http://www.purdue.edu/newsroom/releases/2012/Q3/safety-training-course-scheduled-to-educate-first-responders-about-advanced-electric-drive-vehicles.html\n'
p355
aS'http://www.purdue.edu/newsroom/releases/2012/Q3/science-on-tap-talk-to-focus-on-misconceptions-of-animal-use-in-medical-research.html\n'
p356
aS'http://www.purdue.edu/newsroom/releases/2012/Q3/science-on-tap-talk-to-focus-on-researching-next-generation-of-engines.html\n'
p357
aS'http://www.purdue.edu/newsroom/releases/2012/Q3/scientists-have-way-to-control-sugars-that-lead-to-diabetes,-obesity.html\n'
p358
aS'http://www.purdue.edu/newsroom/releases/2012/Q3/scientists-uncover-last-steps-for-benzoic-acid-creation-in-plants.html\n'
p359
aS'http://www.purdue.edu/newsroom/releases/2012/Q3/see-ballerina-vs.-flash-mob-at-postcards-concert.html\n'
p360
aS'http://www.purdue.edu/newsroom/releases/2012/Q3/seminar-to-help-agribusinesses-market-to-farmers.html\n'
p361
aS'http://www.purdue.edu/newsroom/releases/2012/Q3/sensor-detects-glucose-in-saliva-and-tears-for-diabetes-testing.html\n'
p362
aS'http://www.purdue.edu/newsroom/releases/2012/Q3/sept.-28-opening-of-recreational-sports-center-delayed.html\n'
p363
aS'http://www.purdue.edu/newsroom/releases/2012/Q3/short-crop-could-complicate-farmland-leases,-rent-payments.html\n'
p364
aS'http://www.purdue.edu/newsroom/releases/2012/Q3/signature-of-long-sought-particle-that-could-revolutionize-quantum-computing-seen-by-purdue-physicist.html\n'
p365
aS'http://www.purdue.edu/newsroom/releases/2012/Q3/skip-jackson-dog-jog-brings-canines-to-campus-sept.-22.html\n'
p366
aS'http://www.purdue.edu/newsroom/releases/2012/Q3/sliding-metals-show-fluidlike-behavior,-new-clues-to-wear.html\n'
p367
aS'http://www.purdue.edu/newsroom/releases/2012/Q3/smartmoney-ranks-purdue-degree-among-nations-top-10-buys.html\n'
p368
aS'http://www.purdue.edu/newsroom/releases/2012/Q3/software-developer,-entrepreneur-to-speak-about-micro-enterprises-it-needs-aug.-14.html\n'
p369
aS'http://www.purdue.edu/newsroom/releases/2012/Q2/south-shore-clean-cities,-nirpc-announce-propane-certification-class-for-vehicle-technicians.html\n'
p370
aS'http://www.purdue.edu/newsroom/releases/2012/Q3/specialist-controlling-lawn-weeds-in-drought-carries-risks.html\n'
p371
aS'http://www.purdue.edu/newsroom/releases/2012/Q3/specialist-recommends-weed-control-before-planting-winter-wheat-.html\n'
p372
aS'http://www.purdue.edu/newsroom/releases/2012/Q3/specialists-drought-creating-feed-shortages-for-indiana-dairies.html\n'
p373
aS'http://www.purdue.edu/newsroom/releases/2012/Q3/specialists-sell-grain-at-harvest-this-fall-store-only-if-necessary.html\n'
p374
aS'http://www.purdue.edu/newsroom/releases/2012/Q3/spensa-technologies-expands-staff,-announces-two-new-leadership-positions.html\n'
p375
aS'http://www.purdue.edu/newsroom/releases/2012/Q2/spider-mites-begin-to-inhabit-drought-stressed-soybean-fields.html\n'
p376
aS'http://www.purdue.edu/newsroom/releases/2012/Q3/state-fair-is-showtime-for-purdue-college-of-veterinary-medicine.html\n'
p377
aS'http://www.purdue.edu/newsroom/releases/2012/Q2/state-regulators-getting-word-out-about-new-fertilizer-rules-.html\n'
p378
aS'http://www.purdue.edu/newsroom/releases/2012/Q3/steps-suggested-for-purdue-alert-notification.html\n'
p379
aS'http://www.purdue.edu/newsroom/releases/2012/Q3/students-ability-to-connect-to-campus-events,-activities-gets-easier.html\n'
p380
aS'http://www.purdue.edu/newsroom/releases/2012/Q2/students-in-krannert-program-get-real-world-experience.html\n'
p381
aS'http://www.purdue.edu/newsroom/releases/2012/Q3/students-prefer-apps-to-the-web-when-using-smartphones.html\n'
p382
aS'http://www.purdue.edu/newsroom/releases/2012/Q3/students-to-design,-build-experiment-to-fly-on-space-station.html\n'
p383
aS'http://www.purdue.edu/newsroom/releases/2012/Q3/study-children-abused-by-parents-face-increased-cancer-risk.html\n'
p384
aS'http://www.purdue.edu/newsroom/releases/2012/Q3/study-hearing-impaired-ears-hear-differently-in-noisy-environments.html\n'
p385
aS'http://www.purdue.edu/newsroom/releases/2012/Q3/study-moms-can-be-stressed-when-certain-children-care-for-them.html\n'
p386
aS'http://www.purdue.edu/newsroom/releases/2012/Q2/study-no-fat,-low-fat-dressings-dont-get-most-nutrients-out-of-salads.html\n'
p387
aS'http://www.purdue.edu/newsroom/releases/2012/Q1/study-shines-light-on-ways-to-cut-costs-for-greenhouse-growers.html\n'
p388
aS'http://www.purdue.edu/newsroom/releases/2012/Q3/superconductor-flaws-could-be-key-to-its-abilities.html\n'
p389
aS'http://www.purdue.edu/newsroom/releases/2012/Q3/survey-indiana-farmland-values,-cash-rents-soar.html\n'
p390
aS'http://www.purdue.edu/newsroom/releases/2012/Q3/symposium-will-feature-presentations-on-the-connection-between-aging-and-diversity.html\n'
p391
aS'http://www.purdue.edu/newsroom/releases/2012/Q2/team-usa-selected-from-competition-at-purdue-for-international-biology-olympiad-in-singapore.html\n'
p392
aS'http://www.purdue.edu/newsroom/releases/2012/Q3/technology-developed-to-help-property-managers,-landlords-organize-rental-turn-over-process.html\n'
p393
aS'http://www.purdue.edu/newsroom/releases/2012/Q2/technology-licensed-through-purdue-office-of-technology-commercialization-named-rd-100-award-winner.html\n'
p394
aS'http://www.purdue.edu/newsroom/releases/2012/Q3/telework-advocacy-announces-4th-annual-telework-summit-in-indianapolis.html\n'
p395
aS'http://www.purdue.edu/newsroom/releases/2012/Q1/test-video-photo-abstract.html\n'
p396
aS'http://www.purdue.edu/newsroom/releases/2012/Q1/tiny-spherules-reveal-details-about-earths-asteroid-impacts.html\n'
p397
aS'http://www.purdue.edu/newsroom/releases/2012/Q2/title-ix-expert.html\n'
p398
aS'http://www.purdue.edu/newsroom/releases/2012/Q3/title-ix-service-awardees-announced-as-conference-nears.html\n'
p399
aS'http://www.purdue.edu/newsroom/releases/2012/Q3/tradition-bends-to-allow-silver-twins-to-continue.html\n'
p400
aS'http://www.purdue.edu/newsroom/releases/2012/Q2/trustees-elect-mitchell-e.-daniels-jr.-as-purdues-12th-president.html\n'
p401
aS'http://www.purdue.edu/newsroom/releases/2012/Q3/trustees-ratify-appointments,-approve-new-degree-programs.html\n'
p402
aS'http://www.purdue.edu/newsroom/releases/2012/Q3/tymora-analytical-operations-receives-150,000-nih-grant.html\n'
p403
aS'http://www.purdue.edu/newsroom/releases/2012/Q3/u.s.-sen.-lugar-to-headline-collegiate-energy-summit-at-purdue.html\n'
p404
aS'http://www.purdue.edu/newsroom/releases/2012/Q1/u.s.news-ranks-purdues-graduate-programs-among-nations-best.html\n'
p405
aS'http://www.purdue.edu/newsroom/releases/2012/Q3/undergraduate-research-program-plans-symposium.html\n'
p406
aS'http://www.purdue.edu/newsroom/releases/2012/Q2/updated-directory-of-research-grants-includes-more-than-6,000-opportunities.html\n'
p407
aS'http://www.purdue.edu/newsroom/releases/2012/Q3/wade-steffey-memorial-scholarship-awarded-to-3-indiana-students.html\n'
p408
aS'http://www.purdue.edu/newsroom/releases/2012/Q1/weather-brings-out-emerald-ash-borer-earlier-this-year.html\n'
p409
aS'http://www.purdue.edu/newsroom/releases/2012/Q3/weather-patterns-showing-signs-of-return-to-normal.html\n'
p410
aS'http://www.purdue.edu/newsroom/releases/2012/Q3/webinar-series-to-help-identify-agriculture-funding-sources.html\n'
p411
aS'http://www.purdue.edu/newsroom/releases/2012/Q3/webinar-to-help-guide-beef-producers-through-the-drought.html\n'
p412
aS'http://www.purdue.edu/newsroom/releases/2012/Q3/webinar-to-highlight-needs-of-veterans-in-agriculture.html\n'
p413
aS'http://www.purdue.edu/newsroom/releases/2012/Q3/webinar-to-provide-health-resources-for-drought-stressed-farmers.html\n'
p414
aS'http://www.purdue.edu/newsroom/releases/2012/Q3/weekly-liberal-arts-series-highlights-alumni.html\n'
p415
aS'http://www.purdue.edu/newsroom/releases/2012/Q3/west-nile-virus-and-mosquito-control-experts-available-.html\n'
p416
aS'http://www.purdue.edu/newsroom/releases/2012/Q1/what-to-expect-of-weather-for-super-bowl-week-look-at-history.html\n'
p417
aS'http://www.purdue.edu/newsroom/releases/2012/Q3/wild-native-shrub-suitable-for-home-landscape-plantings.html\n'
p418
aS'http://www.purdue.edu/newsroom/releases/2012/Q1/wisconsin-stout-repeats-as-rube-goldberg-winner.html\n'
p419
aS'http://www.purdue.edu/newsroom/releases/2012/Q3/women-in-agriculture-receive-special-recognition-at-state-fair.html\n'
p420
aS'http://www.purdue.edu/newsroom/releases/2012/Q3/women-in-engineering-invites-high-school-seniors-to-campus.html\n'
p421
aS'http://www.purdue.edu/newsroom/releases/2012/Q2/workshop-at-prophetstown-to-cover-horse-feed-management.html\n'
p422
aS'../../../assets/css/reset.css\n'
p423
aS'http://www.purdue.edu/newsroom/releases/2012/Q3/workshop-to-aid-landowners-in-wildlife-management.html\n'
p424
aS'http://www.purdue.edu/newsroom/releases/2012/Q3/workshop-to-focus-on-forage-management,-drought.html\n'
p425
aS'http://www.purdue.edu/newsroom/releases/2012/Q2/workshop-to-focus-on-meat-goats-for-new,-veteran-producers.html\n'
p426
aS'http://www.purdue.edu/newsroom/releases/2012/Q2/workshop-to-help-teachers-use-engineering-design-in-science-classes-.html\n'
p427
aS'http://www.purdue.edu/newsroom/releases/2012/Q3/workshops-will-help-landowners-earn-income,-conserve-land.html\n'
p428
aS'http://www.purdue.edu/newsroom/releases/2012/Q3/wounded-vet,-actor-to-keynote-krannert-event.html\n'
p429
aS'http://www.purdue.edu/newsroom/releases/2012/Q3/youth-with-disabilities-invited-to-participate-in-purdue-swim,-sports-program.html\n'
p430
a.