(lp0
S'http://www.purdue.edu/newsroom/releases/2012/Q2/-purdue-professors-discuss-greek-crisis,-world-economy.html\n'
p1
aS'http://www.purdue.edu/newsroom/releases/2012/Q3/13th-annual-meet-and-greet-planned-to-welcome-purdue-students-living-off-campus.html\n'
p2
aS'http://www.purdue.edu/newsroom/releases/2012/Q3/1980s-inspired-musical-will-make-you-wanna-rock.html\n'
p3
aS'http://www.purdue.edu/newsroom/releases/2012/Q3/2012-drought-surprises-and-reminds-people-of-past,-says-ag-historian.html\n'
p4
aS'http://www.purdue.edu/newsroom/releases/2012/Q2/5-purdue-students-who-break-records-include-olympic-swimmer.html\n'
p5
aS'http://www.purdue.edu/newsroom/releases/2012/Q2/50-indiana-high-school-students-to-attend-2012-purdue-research-park-entrepreneurship-academy.html\n'
p6
aS'http://www.purdue.edu/newsroom/releases/2012/Q2/500-local-campers-find-friends,-life-lessons-through-pals-program-.html\n'
p7
aS'http://www.purdue.edu/newsroom/releases/2012/Q2/abnormally-hot-spring-weather-changes-crop-pest-dynamics.html\n'
p8
aS'http://www.purdue.edu/newsroom/releases/2012/Q3/academy-seeks-students-interested-in-dairy-careers.html\n'
p9
aS'http://www.purdue.edu/newsroom/releases/2012/Q1/adm-agricultural-innovation-center-at-purdue-opens.html\n'
p10
aS'http://www.purdue.edu/newsroom/releases/2012/Q3/administrators-discuss-policies-in-place-to-report-suspected-child-and-sexual-abuse.html\n'
p11
aS'http://www.purdue.edu/newsroom/releases/2012/Q2/adoption-of-advanced-techniques-could-propel-crop-improvement.html\n'
p12
aS'http://www.purdue.edu/newsroom/releases/2012/Q2/agronomy-firm-integrates-national-weather-service-rainfall-data-with-yield-forecasting-app.html\n'
p13
aS'http://www.purdue.edu/newsroom/releases/2012/Q2/algorithm,-technology-being-developed-to-improve-speech-recognition-products.html\n'
p14
aS'http://www.purdue.edu/newsroom/releases/2012/Q3/all-92-indiana-counties-now-in-drought-state-expecting-rain.html\n'
p15
aS'http://www.purdue.edu/newsroom/releases/2012/Q3/alum-gives-named-professorship-gift-to-engineering-education.html\n'
p16
aS'http://www.purdue.edu/newsroom/releases/2012/Q3/applications-being-taken-for-disabled-veterans-program.html\n'
p17
aS'http://www.purdue.edu/newsroom/releases/2012/Q1/appointments,-honors-and-activities.html\n'
p18
aS'http://www.purdue.edu/newsroom/releases/2012/Q1/appointments,-honors-and-activities1.html\n'
p19
aS'http://www.purdue.edu/newsroom/releases/2012/Q2/appointments,-honors-and-activities2.html\n'
p20
aS'http://www.purdue.edu/newsroom/releases/2012/Q2/appointments,-honors-and-activities3.html\n'
p21
aS'http://www.purdue.edu/newsroom/releases/2012/Q3/appointments,-honors-and-activities4.html\n'
p22
aS'http://www.purdue.edu/newsroom/releases/2012/Q3/appointments,-honors-and-activities5.html\n'
p23
aS'http://www.purdue.edu/newsroom/releases/2012/Q3/appointments,-honors-and-activities6.html\n'
p24
aS'http://www.purdue.edu/newsroom/releases/2012/Q3/appointments,-honors-and-activities7.html\n'
p25
aS'http://www.purdue.edu/newsroom/releases/2012/Q3/appointments,-honors-and-activities8.html\n'
p26
aS'http://www.purdue.edu/newsroom/releases/2012/Q3/appointments,-honors-and-activities9.html\n'
p27
aS'http://www.purdue.edu/newsroom/releases/2012/Q3/armstrong-memorialized-at-purdue-service.html\n'
p28
aS'http://www.purdue.edu/newsroom/releases/2012/Q3/august-rains-give-relief-to-indiana-drought-still-far-from-over.html\n'
p29
aS'http://www.purdue.edu/newsroom/releases/2012/Q3/august-rains-rejuvenate-drought-stressed-soybean-crop.html\n'
p30
aS'http://www.purdue.edu/newsroom/releases/2012/Q3/author,-expert-on-global-food-needs-to-speak-at-purdue.html\n'
p31
aS'http://www.purdue.edu/newsroom/releases/2012/Q3/award-winning-author-to-present-show-at-purdue.html\n'
p32
aS'http://www.purdue.edu/newsroom/releases/2012/Q3/award-winning-vocal-ensemble-to-perform-at-purdue.html\n'
p33
aS'http://www.purdue.edu/newsroom/releases/2012/Q3/b.o.b.-to-perform-at-purdue-in-october.html\n'
p34
aS'http://www.purdue.edu/newsroom/releases/2012/Q2/basi-health-and-wellness-center-open-house.html\n'
p35
aS'http://www.purdue.edu/newsroom/releases/2012/Q3/bertino-named-director-of-discovery-parks-cyber-center.html\n'
p36
aS'http://www.purdue.edu/newsroom/releases/2012/Q3/biotechnology,-globalization-of-pharmaceutical-industry-subjects-of-purdues-annual-peck-symposium.html\n'
p37
aS'https://www.purdue.edu/newsroom/releases/2012/Q4/birck-nanotechnology-center-event-to-showcase-breadth-of-research.html\n'
p38
aS'http://www.purdue.edu/newsroom/releases/2012/Q3/body-heat,-fermentation-drive-new-drug-delivery-micropump.html\n'
p39
aS'http://www.purdue.edu/newsroom/releases/2012/Q3/brantley-gilbert-will-perform-at-purdue-with-uncle-kracker,-greg-bates-and-brian-davis.html\n'
p40
aS'http://www.purdue.edu/newsroom/releases/2012/Q3/butterflies-to-be-counted,-photographed-at-annual-encounter.html\n'
p41
aS'http://www.purdue.edu/newsroom/releases/2012/Q3/c-span-founder,-gov.-daniels-to-discuss-higher-education-during-public-interview.html\n'
p42
aS'http://www.purdue.edu/newsroom/releases/2012/Q3/calling-on-students-make-the-call.html\n'
p43
aS'http://www.purdue.edu/newsroom/releases/2012/Q3/callout-set-for-students-interested-in-burton-d.-morgan-business-plan-competition-.html\n'
p44
aS'http://www.purdue.edu/newsroom/releases/2012/Q2/campus-technology-magazine-picks-hotseat,-doubletake-and-mixable-as-top-innovations-for-2012.html\n'
p45
aS'http://www.purdue.edu/newsroom/releases/2012/Q3/career-night-to-introduce-pork-industry-to-students,-public.html\n'
p46
aS'http://www.purdue.edu/newsroom/releases/2012/Q3/caterpillar-gets-more-from-its-food-when-predator-is-on-the-prowl.html\n'
p47
aS'http://www.purdue.edu/newsroom/releases/2012/Q3/charcoal-rot-invades-soybean-fields,-resembles-drought-stress.html\n'
p48
aS'http://www.purdue.edu/newsroom/releases/2012/Q3/chinas-billy-graham-to-speak-at-purdue.html\n'
p49
aS'http://www.purdue.edu/newsroom/releases/2012/Q3/chinese-delegation-to-visit-purdue,-indianapolis.html\n'
p50
aS'http://www.purdue.edu/newsroom/releases/2012/Q3/city-works-with-purdue-to-create-high-tech-traffic-control-system.html\n'
p51
aS'http://www.purdue.edu/newsroom/releases/2012/Q3/civil-engineering-building-to-be-named-for-alumnus.html\n'
p52
aS'http://www.purdue.edu/newsroom/releases/2012/Q3/college-of-liberal-arts-names-2012-emerging-voice-award-winners.html\n'
p53
aS'http://www.purdue.edu/newsroom/releases/2012/Q3/college-students-balance-academic-success-with-grief,-ill-parents.html\n'
p54
aS'http://www.purdue.edu/newsroom/releases/2012/Q2/company-to-develop-commercial-replacement-for-leaded-general-aviation-gasoline.html\n'
p55
aS'http://www.purdue.edu/newsroom/releases/2012/Q3/conference-examines-woody-biomass-production,-challenges.html\n'
p56
aS'http://www.purdue.edu/newsroom/releases/2012/Q2/continued-dry-weather-takes-its-toll-on-indiana-forage-crops.html\n'
p57
aS'http://www.purdue.edu/newsroom/releases/2012/Q2/control-systems-engineering-firm-joins-purdue-research-park.html\n'
p58
aS'http://www.purdue.edu/newsroom/releases/2012/Q3/corn-silage-could-salvage-some-value-for-drought-damaged-crop.html\n'
p59
aS'http://www.purdue.edu/newsroom/releases/2012/Q3/cover-crops-help-retain-nitrate,-prepare-for-future-crops.html\n'
p60
aS'http://www.purdue.edu/newsroom/releases/2012/Q2/crisis-center-earns-first-purdue-community-partner-award.html\n'
p61
aS'http://www.purdue.edu/newsroom/releases/2012/Q3/crop-production-report,-myplate-exhibit-featured-aug.-10.html\n'
p62
aS'http://www.purdue.edu/newsroom/releases/2012/Q3/curiosity-brings-purdue-professor,-alumni-into-mars-mission.html\n'
p63
aS'http://www.purdue.edu/newsroom/releases/2012/Q3/curiositys-first-martian-steps-enabled-by-students-iphone-app.html\n'
p64
aS'http://www.purdue.edu/newsroom/releases/2012/Q3/cutting-livestock-greenhouse-gases-requires-effort-from-rich-and-poor-countries.html\n'
p65
aS'http://www.purdue.edu/newsroom/releases/2012/Q3/dairy-digest-turns-100-with-rhyming-podcast.html\n'
p66
aS'http://www.purdue.edu/newsroom/releases/2012/Q3/dairy-exchange-to-focus-on-succession-planning,-housing-facilities.html\n'
p67
aS'http://www.purdue.edu/newsroom/releases/2012/Q1/deboer-farmland-property-taxes-to-continue-rising-into-2015.html\n'
p68
aS'http://www.purdue.edu/newsroom/releases/2012/Q2/delaware-county-program-wins-purdue-award.html\n'
p69
aS'http://www.purdue.edu/newsroom/releases/2012/Q3/designer-fertilizer-producer-joins-purdue-research-park.html\n'
p70
aS'http://www.purdue.edu/newsroom/releases/2012/Q3/despite-drought,-pumpkin-crop-looks-strong-and-healthy.html\n'
p71
aS'http://www.purdue.edu/newsroom/releases/2012/Q3/detroit-theme-of-black-cultural-centers-fall-series.html\n'
p72
aS'http://www.purdue.edu/newsroom/releases/2012/Q3/digital-badges-show-students-skills-along-with-degree.html\n'
p73
aS'http://www.purdue.edu/newsroom/releases/2012/Q3/directory-lists-more-than-4,400-funding-opportunities-in-biomedical,-health-care-sectors.html\n'
p74
aS'http://www.purdue.edu/newsroom/releases/2012/Q3/disaster-recovery-expert-neighbors-are-key-to-beating-the-heat.html\n'
p75
aS'http://www.purdue.edu/newsroom/releases/2012/Q3/disaster-recovery-expert-on-rebuilding-7-years-after-katrina-.html\n'
p76
aS'http://www.purdue.edu/newsroom/releases/2012/Q3/discovery-park-center-receives-additional-10-million-in-research-funding-from-regenstrief-foundation.html\n'
p77
aS'http://www.purdue.edu/newsroom/releases/2012/Q3/double-crop-soybeans-struggle-to-mature-could-be-valuable-forage.html\n'
p78
aS'http://www.purdue.edu/newsroom/releases/2012/Q3/downtown-location-to-house-purdue-art-gallery.html\n'
p79
aS'http://www.purdue.edu/newsroom/releases/2012/Q3/drought-challenges-communities-to-plan-for-weather-extremes.html\n'
p80
aS'http://www.purdue.edu/newsroom/releases/2012/Q2/drought-could-cost-farmers-with-future-delivery-contracts.html\n'
p81
aS'http://www.purdue.edu/newsroom/releases/2012/Q3/drought-could-have-lasting-effect-on-trees,-specialist-says.html\n'
p82
aS'http://www.purdue.edu/newsroom/releases/2012/Q2/drought-could-limit-garden-plants-development-next-year.html\n'
p83
aS'http://www.purdue.edu/newsroom/releases/2012/Q3/drought-has-potential-three-year-tail-on-beef-production.html\n'
p84
aS'http://www.purdue.edu/newsroom/releases/2012/Q3/drought-has-repercussions-for-indiana-fish-and-wildlife.html\n'
p85
aS'http://www.purdue.edu/newsroom/releases/2012/Q2/drought-in-indiana-worsens-no-letup-in-sight.html\n'
p86
aS'http://www.purdue.edu/newsroom/releases/2012/Q3/drought-leaves-hay-and-livestock-producers-high-and-dry.html\n'
p87
aS'http://www.purdue.edu/newsroom/releases/2012/Q3/drought-monitor,-rain-outlook-a-mixed-bag-for-indiana.html\n'
p88
aS'http://www.purdue.edu/newsroom/releases/2012/Q3/drought-season-highlights-damage-caused-by-nematodes.html\n'
p89
aS'http://www.purdue.edu/newsroom/releases/2012/Q3/drought-stress-starting-to-set-in-on-specialty-and-produce-crops.html\n'
p90
aS'http://www.purdue.edu/newsroom/releases/2012/Q3/drought-threatens-financial-well-being-of-livestock-sector.html\n'
p91
aS'http://www.purdue.edu/newsroom/releases/2012/Q2/drought-widens-and-strengthens-grip-on-indiana.html\n'
p92
aS'http://www.purdue.edu/newsroom/releases/2012/Q3/eab-likely-in-most-lafayette-area-trees,-purdue-expert-says-.html\n'
p93
aS'http://www.purdue.edu/newsroom/releases/2012/Q3/early-weaning,-ddgs-feed-could-cut-costs-for-cattle-producers.html\n'
p94
aS'http://www.purdue.edu/newsroom/releases/2012/Q3/emergency-preparedness-safety-day-intended-to-help-students-take-proactive-approach-to-well-being.html\n'
p95
aS'http://www.purdue.edu/newsroom/releases/2012/Q1/energy-dense-biofuel-from-cellulose-close-to-being-economical.html\n'
p96
aS'http://www.purdue.edu/newsroom/releases/2012/Q3/energy-management-services-company-joins-purdue-research-park.html\n'
p97
aS'http://www.purdue.edu/newsroom/releases/2012/Q3/energy-monitoring-company-launches-ready-to-install-product,-upgrades-technology.html\n'
p98
aS'http://www.purdue.edu/newsroom/releases/2012/Q3/energy-veteran-to-lead-swift-fuels--.html\n'
p99
aS'http://www.purdue.edu/newsroom/releases/2012/Q2/entomologist-controlling-insects,-rodents-vital-to-healthy-livestock.html\n'
p100
aS'http://www.purdue.edu/newsroom/releases/2012/Q2/evidence-of-life-on-mars-could-come-from-martian-moon.html\n'
p101
aS'http://www.purdue.edu/newsroom/releases/2012/Q2/excited-about-a-cloudy-future-at-purdue-university-and-emc-bringing-massive-data-storage-to-students-and-faculty.html\n'
p102
aS'http://www.purdue.edu/newsroom/releases/2012/Q3/expert-back-to-school-buying-starting-now.html\n'
p103
aS'http://www.purdue.edu/newsroom/releases/2012/Q3/experts-to-speak-on-immigration-and-the-2012-election.html\n'
p104
aS'http://www.purdue.edu/newsroom/releases/2012/Q3/extreme-drought-spreads-across-indiana,-but-relief-in-sight.html\n'
p105
aS'http://www.purdue.edu/newsroom/releases/2012/Q3/faculty-fellow-at-discovery-learning-research-center-focuses-on-distance-learning-in-cancer,-chronic-disease-prevention.html\n'
p106
aS'http://www.purdue.edu/newsroom/releases/2012/Q3/fall-and-winter-weather-outlook-in-indiana-something-for-everyone.html\n'
p107
aS'http://www.purdue.edu/newsroom/releases/2012/Q3/farmers-on-the-lookout-for-aflatoxin-as-drought-continues.html\n'
p108
aS'http://www.purdue.edu/newsroom/releases/2012/Q3/field-day-to-focus-on-farm-management-to-increase-productivity-.html\n'
p109
aS'http://www.purdue.edu/newsroom/releases/2012/Q2/fireworks-danger-heightened-by-drought-conditions.html\n'
p110
aS'http://www.purdue.edu/newsroom/releases/2012/Q1/football-findings-suggest-concussions-caused-by-series-of-hits.html\n'
p111
aS'http://www.purdue.edu/newsroom/releases/2012/Q3/forage-crops-could-provide-opportunities-following-corn.html\n'
p112
aS'http://www.purdue.edu/newsroom/releases/2012/Q3/forum-to-highlight-preventing-farm-accidents,-injuries.html\n'
p113
aS'http://www.purdue.edu/newsroom/releases/2012/Q3/fourth-annual-indiana-innovation-showcase-to-highlight-startups-and-high-tech-investment-opportunities-.html\n'
p114
aS'http://www.purdue.edu/newsroom/releases/2012/Q3/freshman,-grad-student-enrollment-up-in-college-of-agriculture.html\n'
p115
aS'http://www.purdue.edu/newsroom/releases/2012/Q3/friendships,-community-ties-will-aid-those-in-hurricane-path.html\n'
p116
aS'http://www.purdue.edu/newsroom/releases/2012/Q3/genes-function-may-give-new-target-for-cancer-drugs.html\n'
p117
aS'http://www.purdue.edu/newsroom/releases/2012/Q1/global-food-security-center-hires-manager,-receives-grants.html\n'
p118
aS'http://www.purdue.edu/newsroom/releases/2012/Q3/glyphosate-resistant-superweeds-may-be-less-susceptible-to-diseases.html\n'
p119
aS'http://www.purdue.edu/newsroom/releases/2012/Q3/glyphosate-resistant-weeds-found-in-multiple-indiana-counties.html\n'
p120
aS'http://www.purdue.edu/newsroom/releases/2012/Q3/golf-outing-to-benefit-wounded-warrior-project,-purdue-and-ivy-tech-student-veterans-organizations.html\n'
p121
aS'http://www.purdue.edu/newsroom/releases/2012/Q3/graduate-engineering-ranked-among-best-for-hispanic-students.html\n'
p122
aS'http://www.purdue.edu/newsroom/releases/2012/Q3/greater-lafayette-libraries-now-offer-searchable-database-of-grants,-funding.html\n'
p123
aS'http://www.purdue.edu/newsroom/releases/2012/Q3/green-weeds-complicate-early-corn,-soybean-harvest.html\n'
p124
aS'http://www.purdue.edu/newsroom/releases/2012/Q2/harley-riders-climb-aboard-to-help-children-with-autism.html\n'
p125
aS'http://www.purdue.edu/newsroom/releases/2012/Q2/heat,-lack-of-rain-exaggerate-need-for-grazing-management.html\n'
p126
aS'http://www.purdue.edu/newsroom/releases/2012/Q2/heat-advisory-includes-purdue-campus,-surrounding-counties.html\n'
p127
aS'http://www.purdue.edu/newsroom/releases/2012/Q3/heat-and-drought-lead-to-ear-rot-potential-in-corn-grain,-silage.html\n'
p128
aS'http://www.purdue.edu/newsroom/releases/2012/Q3/high-tech-indiana-company-to-develop-device-for-use-in-international-space-station-lab.html\n'
p129
aS'http://www.purdue.edu/newsroom/releases/2012/Q2/home-lawn-during-drought-to-water-...-or-not.html\n'
p130
aS'http://www.purdue.edu/newsroom/releases/2012/Q3/hoosiers-asked-to-prepare-for-possible-weekend-flooding.html\n'
p131
aS'http://www.purdue.edu/newsroom/releases/2012/Q3/horse-owners-should-watch-for-symptoms-of-equine-disease.html\n'
p132
aS'http://www.purdue.edu/newsroom/releases/2012/Q3/hurt-corn-yield-projections-down,-but-not-as-much-as-expected.html\n'
p133
aS'http://www.purdue.edu/newsroom/releases/2012/Q3/increased-use-of-alternative-fuel-vehicles-lowers-2011-gasoline-consumption-levels-in-northern-indiana.html\n'
p134
aS'http://www.purdue.edu/newsroom/releases/2012/Q3/india-needs-system-reforms-in-education,-infrastructure,-culture-to-grow-innovation-and-commercialization-efforts.html\n'
p135
aS'http://www.purdue.edu/newsroom/releases/2012/Q3/indiana-cca-days-to-cover-latest-agronomy-topics.html\n'
p136
aS'http://www.purdue.edu/newsroom/releases/2012/Q3/indiana-company-provides-health-and-identity-cards-for-3-u.s.-olympic-teams.html\n'
p137
aS'http://www.purdue.edu/newsroom/releases/2012/Q3/indiana-sees-more-drought-relief,-but-dry-conditions-persist.html\n'
p138
aS'http://www.purdue.edu/newsroom/releases/2012/Q3/indiana-sweet-corn-abundant-now,-maybe-not-later-in-season.html\n'
p139
aS'http://www.purdue.edu/newsroom/releases/2012/Q3/indiana-winery-takes-top-honors-in-indy-international.html\n'
p140
aS'http://www.purdue.edu/newsroom/releases/2012/Q3/industrial-utility-monitoring-firm-hires-business-development-professional.html\n'
p141
aS'http://www.purdue.edu/newsroom/releases/2012/Q2/information-for-journalists-planning-to-cover-announcement-of-purdues-new-president.html\n'
p142
aS'http://www.purdue.edu/newsroom/releases/2012/Q3/initiative-offers-path-for-students-to-graduate-in-4-years.html\n'
p143
aS'http://www.purdue.edu/newsroom/releases/2012/Q3/innovation-fund-awards-nearly-200,000-to-help-commercialize-purdue-discoveries----.html\n'
p144
aS'http://www.purdue.edu/newsroom/releases/2012/Q1/innovation-promises-expanded-roles-for-microsensors.html\n'
p145
aS'http://www.purdue.edu/newsroom/releases/2012/Q3/insecticide-restrictions-important-as-soybeans-mature.html\n'
p146
aS'http://www.purdue.edu/newsroom/releases/2012/Q1/ipad-pharmacy-checklist-could-be-prescription-for-better-health.html\n'
p147
aS'http://www.purdue.edu/newsroom/releases/2012/Q2/irish-mezzo-soprano-naomi-oconnell-reschedules-purdue-performance.html\n'
p148
aS'http://www.purdue.edu/newsroom/releases/2012/Q3/iu-health-arnett-plans-investment-in-lyles-porter-hall.html\n'
p149
aS'http://www.purdue.edu/newsroom/releases/2012/Q3/ivdiagnostics-establishes-new-lab-to-monitor,-measure-cancer-cells.html\n'
p150
aS'http://www.purdue.edu/newsroom/releases/2012/Q1/ivdiagnostics-opens-office-in-purdue-research-park-of-northwest-indiana.html\n'
p151
aS'http://www.purdue.edu/newsroom/releases/2012/Q3/jazz-organ-legend-dr.-lonnie-smith-to-perform-in-lafayette.html\n'
p152
aS'http://www.purdue.edu/newsroom/releases/2012/Q3/kane-named-inaugural-director-of-lgbtq-center-at-purdue.html\n'
p153
aS'http://www.purdue.edu/newsroom/releases/2012/Q3/krannert-dinner-to-feature-alumni-awards,-keynote-from-martinez.html\n'
p154
aS'http://www.purdue.edu/newsroom/releases/2012/Q1/krannert-mba-program-improves-in-financial-times-rankings.html\n'
p155
aS'http://www.purdue.edu/newsroom/releases/2012/Q2/krannert-to-offer-updated-human-resource-management-program.html\n'
p156
aS'http://www.purdue.edu/newsroom/releases/2012/Q3/lechtenberg-named-purdues-acting-provost.html\n'
p157
aS'http://www.purdue.edu/newsroom/releases/2012/Q3/life-science-firm-that-received-federal,-purdue-funding-is-generating-revenue.html\n'
p158
aS'http://www.purdue.edu/newsroom/releases/2012/Q3/linda-aiken,-top-healthcare-policy-scholar,-to-speak-at-purdue.html\n'
p159
aS'http://www.purdue.edu/newsroom/releases/2012/Q3/linkedin-executive,-alumnus-to-visit-purdue.html\n'
p160
aS'http://www.purdue.edu/newsroom/releases/2012/Q3/low-oxygen-boosts-stem-cell-survival-in-muscular-dystrophy-therapy.html\n'
p161
aS'http://www.purdue.edu/newsroom/releases/2012/Q1/machine-tracing-history-of-rube-goldberg-competition-wins-local-contest.html\n'
p162
aS'http://www.purdue.edu/newsroom/releases/2012/Q2/media-access-info-for-purdue-presidential-announcement.html\n'
p163
aS'http://www.purdue.edu/newsroom/releases/2012/Q3/media-advisory-purdue-extension-to-hold-news-conference,-availability-on-drought.html\n'
p164
aS'http://www.purdue.edu/newsroom/releases/2012/Q3/media-advisory-purdue-researchers-part-of-search-for-higgs-boson-attending-wednesday-announcement.html\n'
p165
aS'http://www.purdue.edu/newsroom/releases/2012/Q3/meeting-to-discuss-feasibility,-future-of-food-hub.html\n'
p166
aS'http://www.purdue.edu/newsroom/releases/2012/Q2/mexican-voters-take-on-good-old-days-will-be-key-in-presidential-elections.html\n'
p167
aS'http://www.purdue.edu/newsroom/releases/2012/Q3/mind-over-matter-quench-summer-thirst,-but-measure-beverage-calories.html\n'
p168
aS'http://www.purdue.edu/newsroom/releases/2012/Q3/mintert-to-lead-purdue-extension-in-interim.html\n'
p169
aS'http://www.purdue.edu/newsroom/releases/2012/Q2/more-crops-affected-as-drought-spreads-throughout-indiana.html\n'
p170
aS'http://www.purdue.edu/newsroom/releases/2012/Q3/more-rain-needed-to-show-lessening-of-drought-in-indiana.html\n'
p171
aS'http://www.purdue.edu/newsroom/releases/2012/Q2/moving-making-friends-key-to-turning-new-house-into-a-home.html\n'
p172
aS'http://www.purdue.edu/newsroom/releases/2012/Q3/nano-machine-shop-shapes-nanowires,-ultrathin-films.html\n'
p173
aS'http://www.purdue.edu/newsroom/releases/2012/Q3/nanoresonators-might-improve-cell-phone-performance.html\n'
p174
aS'http://www.purdue.edu/newsroom/releases/2012/Q3/nasa-taps-indiana-firm-to-build-device-to-study-gravitys-effects.html\n'
p175
aS'http://www.purdue.edu/newsroom/releases/2012/Q3/neil-armstrong-memorial-service-set-for-aug.-27-on-purdue-campus.html\n'
p176
aS'http://www.purdue.edu/newsroom/releases/2012/Q3/neil-armstrong-memorial-service-to-be-broadcast-live-via-webcast.html\n'
p177
aS'http://www.purdue.edu/newsroom/releases/2012/Q3/never-before-seen-plant-metabolites-discovered.html\n'
p178
aS'http://www.purdue.edu/newsroom/releases/2012/Q3/new-buoy-offers-real-time-lake-michigan-data-in-indiana.html\n'
p179
aS'http://www.purdue.edu/newsroom/releases/2012/Q2/new-cfo-and-cafo-rules-require-operational-changes.html\n'
p180
aS'http://www.purdue.edu/newsroom/releases/2012/Q3/new-design-tool-nixes-mouse-users-create-shapes-with-hands-only.html\n'
p181
aS'http://www.purdue.edu/newsroom/releases/2012/Q1/new-hire-to-help-students-with-off-campus-housing-.html\n'
p182
aS'http://www.purdue.edu/newsroom/releases/2012/Q3/new-krannert-program-aimed-at-helping-undergrads-launch-careers.html\n'
p183
aS'http://www.purdue.edu/newsroom/releases/2012/Q1/new-microtweezers-build-tiny-structures.html\n'
p184
aS'http://www.purdue.edu/newsroom/releases/2012/Q3/new-purdue-developed-mobile-app-helps-identify-tropical-plants-of-costa-rica,-could-be-used-to-create-other-note-taking-apps.html\n'
p185
aS'http://www.purdue.edu/newsroom/releases/2012/Q3/new-purdue-efforts-focus-on-brazil.html\n'
p186
aS'http://www.purdue.edu/newsroom/releases/2012/Q3/new-purdue-research-park-based-firm-helps-surgeons-see-cancer-cells.html\n'
p187
aS'http://www.purdue.edu/newsroom/releases/2012/Q2/new-purdue-research-park-tenant-to-roll-out-technology-at-detroit-conference.html\n'
p188
aS'http://www.purdue.edu/newsroom/releases/2012/Q3/new-self-calibrating-mems-bringing-accuracy-to-nanotech.html\n'
p189
aS'http://www.purdue.edu/newsroom/releases/2012/Q3/new-soybean-virus-found,-confirmed-in-indiana.html\n'
p190
aS'http://www.purdue.edu/newsroom/releases/2012/Q3/new-students-begin-purdue-experience-with-orientation-program.html\n'
p191
aS'http://www.purdue.edu/newsroom/releases/2012/Q3/new-system-could-predict-solar-flares,-give-advance-warning.html\n'
p192
aS'http://www.purdue.edu/newsroom/releases/2012/Q3/new-tool-gives-structural-strength-to-3-d-printed-works.html\n'
p193
aS'http://www.purdue.edu/newsroom/releases/2012/Q1/news-template.html\n'
p194
aS'http://www.purdue.edu/newsroom/releases/2012/Q1/news-template1.html\n'
p195
aS'http://www.purdue.edu/newsroom/releases/2012/Q3/nielsen-indiana-drought-worst-on-crop-conditions-since-1988.html\n'
p196
aS'http://www.purdue.edu/newsroom/releases/2012/Q2/no-sleep-energy-bugs-drain-smartphone-batteries.html\n'
p197
aS'http://www.purdue.edu/newsroom/releases/2012/Q3/nominations-sought-for-purdues-hovde-award.html\n'
p198
aS'http://www.purdue.edu/newsroom/releases/2012/Q3/nominations-sought-for-top-purdue-ag-awards.html\n'
p199
aS'http://www.purdue.edu/newsroom/releases/2012/Q3/normal-fall-foliage-expected-despite-summers-drought.html\n'
p200
aS'http://www.purdue.edu/newsroom/releases/2012/Q2/nuclear-weapon-simulations-show-performance-in-molecular-detail.html\n'
p201
aS'http://www.purdue.edu/newsroom/releases/2012/Q3/ohio-state,-purdue-partner-as-farm-science-review-turns-50.html\n'
p202
aS'http://www.purdue.edu/newsroom/releases/2012/Q3/online-app-helps-agricultural-growers-track,-manage-insect-populations-.html\n'
p203
aS'http://www.purdue.edu/newsroom/releases/2012/Q3/op-ed-understanding-media-violence.html\n'
p204
aS'http://www.purdue.edu/newsroom/releases/2012/Q3/organizers-hope-statue-of-purdues-founder-connects-him,-students.html\n'
p205
aS'http://www.purdue.edu/newsroom/releases/2012/Q1/pill-some-day-may-prevent-serious-foodborne-illness,-scientist-says.html\n'
p206
aS'http://www.purdue.edu/newsroom/releases/2012/Q3/poor-pollination-leads-to-moldy-growth-in-corn.html\n'
p207
aS'http://www.purdue.edu/newsroom/releases/2012/Q3/prof-be-wary-of-calling-japans-nuclear-disaster-a-cultural-problem.html\n'
p208
aS'http://www.purdue.edu/newsroom/releases/2012/Q3/prof-be-wary-when-disgust-tactics-used-in-campaigning.html\n'
p209
aS'http://www.purdue.edu/newsroom/releases/2012/Q3/prof-movie-violence-plays-a-role-in-real-life.html\n'
p210
aS'http://www.purdue.edu/newsroom/releases/2012/Q3/prof-rewriting-history-by-altering-penn-state-record-is-risky.html\n'
p211
aS'http://www.purdue.edu/newsroom/releases/2012/Q3/prof-utilizing-former-presidents-in-campaign-plays-to-strengths.html\n'
p212
aS'http://www.purdue.edu/newsroom/releases/2012/Q3/professor-named-as-next-entrepreneur-in-residence-by-purdues-burton-d.-morgan-center.html\n'
p213
aS'http://www.purdue.edu/newsroom/releases/2012/Q2/program-at-purdue-to-train-grad-students-in-food-security.html\n'
p214
aS'http://www.purdue.edu/newsroom/releases/2012/Q2/program-for-youth-with-disabilities-offers-summer-session.html\n'
p215
aS'http://www.purdue.edu/newsroom/releases/2012/Q3/public-asked-to-choose-official-purdue-tartan.html\n'
p216
aS'http://www.purdue.edu/newsroom/releases/2012/Q3/purdue,-community-leaders-join-to-announce-spirit-contest.html\n'
p217
aS'http://www.purdue.edu/newsroom/releases/2012/Q3/purdue,-community-officials-to-introduce-new-site-for-downtown-art-gallery.html\n'
p218
aS'http://www.purdue.edu/newsroom/releases/2012/Q3/purdue,-iu-health-arnett-launch-colorectal-cancer-research-partnership-.html\n'
p219
aS'http://www.purdue.edu/newsroom/releases/2012/Q2/purdue,-unc-charlotte-professors-lead-voluntary-code-of-ethics-effort-for-journals.html\n'
p220
aS'http://www.purdue.edu/newsroom/releases/2012/Q3/purdue,-west-lafayette-to-welcome-students-living-off-campus.html\n'
p221
aS'http://www.purdue.edu/newsroom/releases/2012/Q1/purdue-ag,-biological-engineering-earns-top-ranking-again.html\n'
p222
aS'http://www.purdue.edu/newsroom/releases/2012/Q3/purdue-again-urges-bicycle,-pedestrian-safety.html\n'
p223
aS'http://www.purdue.edu/newsroom/releases/2012/Q1/purdue-agriculture-and-extension-events.html\n'
p224
aS'http://www.purdue.edu/newsroom/releases/2012/Q1/purdue-announces-energy-master-plan,-seeks-public-comment.html\n'
p225
aS'http://www.purdue.edu/newsroom/releases/2012/Q3/purdue-apps-aiding-law-enforcement,-public-safety-agencies.html\n'
p226
aS'http://www.purdue.edu/newsroom/releases/2012/Q1/purdue-awards-degrees,-honors-students.html\n'
p227
aS'http://www.purdue.edu/newsroom/releases/2012/Q3/purdue-band-day-packs-musicians-from-end-zone-to-end-zone.html\n'
p228
aS'http://www.purdue.edu/newsroom/releases/2012/Q3/purdue-band-members-to-fly-worlds-largest-drum-into-largest-lake.html\n'
p229
aS'http://www.purdue.edu/newsroom/releases/2012/Q4/purdue-breast-cancer-prevention-symposium-to-draw-researchers-from-15-countries.html\n'
p230
aS'http://www.purdue.edu/newsroom/releases/2012/Q3/purdue-brings-peer-institutions-together-for-future-graduate-students.html\n'
p231
aS'http://www.purdue.edu/newsroom/releases/2012/Q1/purdue-changes-process-for-parking-citations.html\n'
p232
aS'http://www.purdue.edu/newsroom/releases/2012/Q3/purdue-chef-suggests-putting-on-the-dog-for-your-tailgate.html\n'
p233
aS'http://www.purdue.edu/newsroom/releases/2012/Q3/purdue-college-of-veterinary-medicines-priority-4-paws-to-benefit-animal-shelters,-students.html\n'
p234
aS'http://www.purdue.edu/newsroom/releases/2012/Q3/purdue-continues-enhancement-of-armstrong-papers,-those-of-other-historical-flight-figures.html\n'
p235
aS'http://www.purdue.edu/newsroom/releases/2012/Q3/purdue-continues-trend-of-high-caliber-students,-including-many-of-the-states-best.html\n'
p236
aS'http://www.purdue.edu/newsroom/releases/2012/Q1/purdue-convocations-announces-its-2012-13-season.html\n'
p237
aS'http://www.purdue.edu/newsroom/releases/2012/Q3/purdue-convocations-offers-ways-for-students-to-get-involved.html\n'
p238
aS'http://www.purdue.edu/newsroom/releases/2012/Q3/purdue-convocations-to-kick-off-110th-season-with-green-days-american-idiot.html\n'
p239
aS'http://www.purdue.edu/newsroom/releases/2012/Q3/purdue-creates-graduate-certificate-in-hybrid-vehicles.html\n'
p240
aS'http://www.purdue.edu/newsroom/releases/2012/Q3/purdue-day-at-indiana-state-fair-set-for-aug.-10.html\n'
p241
aS'http://www.purdue.edu/newsroom/releases/2012/Q3/purdue-designed-fiber-may-improve-digestive-health.html\n'
p242
aS'http://www.purdue.edu/newsroom/releases/2012/Q3/purdue-donations-of-nearly-300-million-second-highest-in-university-history.html\n'
p243
aS'http://www.purdue.edu/newsroom/releases/2012/Q3/purdue-economist-predicts-record-losses-for-pork-industry.html\n'
p244
aS'http://www.purdue.edu/newsroom/releases/2012/Q2/purdue-enterprise-co.-matches-faculty-consultants,-businesses.html\n'
p245
aS'http://www.purdue.edu/newsroom/releases/2012/Q3/purdue-entomology,-engineering-professors-to-receive-presidential-research-awards.html\n'
p246
aS'http://www.purdue.edu/newsroom/releases/2012/Q1/purdue-events-calendar.html\n'
p247
aS'http://www.purdue.edu/newsroom/releases/2012/Q3/purdue-exhibit-shows-how-to-make-better-food-choices.html\n'
p248
aS'http://www.purdue.edu/newsroom/releases/2012/Q3/purdue-expert-can-speak-about-arsenic-in-rice.html\n'
p249
aS'http://www.purdue.edu/newsroom/releases/2012/Q2/purdue-expert-making-a-difference-key-to-attracting-young-women-to-engineering,-science.html\n'
p250
aS'http://www.purdue.edu/newsroom/releases/2012/Q3/purdue-expert-obama,-romney-appeal-to-different-voter-emotions.html\n'
p251
aS'http://www.purdue.edu/newsroom/releases/2012/Q3/purdue-expert-replacement-ref-controversy-could-be-good-for-nfl.html\n'
p252
aS'http://www.purdue.edu/newsroom/releases/2012/Q1/purdue-expert-says-super-bowl-ads-may-not-be-worth-the-money.html\n'
p253
aS'http://www.purdue.edu/newsroom/releases/2012/Q2/purdue-expert-to-speak-at-conference-on-bioeconomy.html\n'
p254
aS'http://www.purdue.edu/newsroom/releases/2012/Q3/purdue-expert-urges-safety-when-mowing-near-water,-slopes.html\n'
p255
aS'http://www.purdue.edu/newsroom/releases/2012/Q3/purdue-experts-crop-report-dismal,-but-not-unexpected.html\n'
p256
aS'http://www.purdue.edu/newsroom/releases/2012/Q3/purdue-experts-remind-about-proper-food-handling-amid-salmonellosis-outbreak.html\n'
p257
aS'http://www.purdue.edu/newsroom/releases/2012/Q2/purdue-experts-still-some-time-left-to-rebound-from-drought-.html\n'
p258
aS'http://www.purdue.edu/newsroom/releases/2012/Q3/purdue-extension-has-advice-for-repairing-drought-damaged-lawns.html\n'
p259
aS'http://www.purdue.edu/newsroom/releases/2012/Q3/purdue-extension-has-qa-guide-on-salmonellosis-outbreak.html\n'
p260
aS'http://www.purdue.edu/newsroom/releases/2012/Q3/purdue-extension-holds-regional-meetings-on-drought.html\n'
p261
aS'http://www.purdue.edu/newsroom/releases/2012/Q3/purdue-extension-publication-a-resource-for-pesticide-users.html\n'
p262
aS'http://www.purdue.edu/newsroom/releases/2012/Q2/purdue-extension-starts-website-for-information-on-drought.html\n'
p263
aS'http://www.purdue.edu/newsroom/releases/2012/Q3/purdue-extension-to-host-southern-indiana-grazing-workshop.html\n'
p264
aS'http://www.purdue.edu/newsroom/releases/2012/Q3/purdue-extension-to-offer-conservation-drainage-field-day.html\n'
p265
aS'http://www.purdue.edu/newsroom/releases/2012/Q3/purdue-fire-chief-urges-fire-prevention,-safety.html\n'
p266
aS'http://www.purdue.edu/newsroom/releases/2012/Q3/purdue-focuses-on-growing-global-leaders-at-2012-indiana-black-expo.html\n'
p267
aS'http://www.purdue.edu/newsroom/releases/2012/Q3/purdue-galleries-begins-new-season-of-exhibits-with-changes.html\n'
p268
aS'http://www.purdue.edu/newsroom/releases/2012/Q3/purdue-gets-5.2-million-to-develop-new-biofuel-process.html\n'
p269
aS'http://www.purdue.edu/newsroom/releases/2012/Q3/purdue-graduates-develop-game,-create-their-own-jobs.html\n'
p270
aS'http://www.purdue.edu/newsroom/releases/2012/Q3/purdue-graduates-urged-to-seek-opportunities,-embrace-change.html\n'
p271
aS'http://www.purdue.edu/newsroom/releases/2012/Q3/purdue-healthcare-technical-assistance-program-changes-name-becomes-purdue-healthcare-advisors.html\n'
p272
aS'http://www.purdue.edu/newsroom/releases/2012/Q3/purdue-history-prof-to-appear-on-history-detectives.html\n'
p273
aS'http://www.purdue.edu/newsroom/releases/2012/Q1/purdue-in-princeton-reviews-top-150-best-value-colleges.html\n'
p274
aS'http://www.purdue.edu/newsroom/releases/2012/Q3/purdue-in-top-100-of-qs-world-university-rankings.html\n'
p275
aS'http://www.purdue.edu/newsroom/releases/2012/Q1/purdue-innovation-fund-awards-nearly-500,000-for-research-in-diabetes,-concussions,-cancer-and-7-other-projects.html\n'
p276
aS'http://www.purdue.edu/newsroom/releases/2012/Q3/purdue-innovations-to-be-showcased-aug.-21-for-licensing,-commercialization-deals.html\n'
p277
aS'http://www.purdue.edu/newsroom/releases/2012/Q3/purdue-joins-center-for-excellence-in-education-for-bite-of-science-event-to-strengthen-science-teaching.html\n'
p278
aS'http://www.purdue.edu/newsroom/releases/2012/Q3/purdue-memorial-unions-summer-concert-series-opens-july-11.html\n'
p279
aS'http://www.purdue.edu/newsroom/releases/2012/Q3/purdue-mourns-alumnus-neil-armstrong.html\n'
p280
aS'http://www.purdue.edu/newsroom/releases/2012/Q3/purdue-musical-organizations-continues-campus,-community-arts-series.html\n'
p281
aS'http://www.purdue.edu/newsroom/releases/2013/Q3/purdue-musical-organizations-to-hold-kids-choir-auditions.html\n'
p282
aS'http://www.purdue.edu/newsroom/releases/2012/Q3/purdue-offering-new-degree-in-environmental-and-ecological-engineering.html\n'
p283
aS'http://www.purdue.edu/newsroom/releases/2012/Q3/purdue-offers-rides-in-plane-model-in-which-armstrong-took-first-flight.html\n'
p284
aS'http://www.purdue.edu/newsroom/releases/2012/Q3/purdue-physicists-part-of-discovery-of-new-particle-that-could-be-higgs-boson.html\n'
p285
aS'http://www.purdue.edu/newsroom/releases/2012/Q2/purdue-plans-professorship-in-honor-of-lechtenberg.html\n'
p286
aS'http://www.purdue.edu/newsroom/releases/2012/Q3/purdue-police-offer-help,-resources-when-needed.html\n'
p287
aS'http://www.purdue.edu/newsroom/releases/2012/Q2/purdue-police-offer-rape-aggression-defense-training.html\n'
p288
aS'http://www.purdue.edu/newsroom/releases/2012/Q3/purdue-prepares-funding-request-for-state.html\n'
p289
aS'http://www.purdue.edu/newsroom/releases/2012/Q3/purdue-president-to-graduates-seek-opportunities,-embrace-change-.html\n'
p290
aS'http://www.purdue.edu/newsroom/releases/2012/Q1/purdue-professors-to-advance-breast-cancer-research-partnership-through-trip-to-ghana.html\n'
p291
aS'http://www.purdue.edu/newsroom/releases/2012/Q3/purdue-ranked-among-top-universities-in-nation.html\n'
p292
aS'http://www.purdue.edu/newsroom/releases/2012/Q3/purdue-recognizes-five-new-boilermakers.html\n'
p293
aS'http://www.purdue.edu/newsroom/releases/2012/Q3/purdue-recognizes-national-disability-employment-awareness-month-with-workshops.html\n'
p294
aS'http://www.purdue.edu/newsroom/releases/2012/Q3/purdue-recognizes-professors-who-make-solutions-to-everyday-problems-across-the-world.html\n'
p295
aS'http://www.purdue.edu/newsroom/releases/2012/Q3/purdue-research-park-entrepreneurship-academy-awards-vouchers-to-indiana-high-school-students.html\n'
p296
aS'http://www.purdue.edu/newsroom/releases/2012/Q2/purdue-research-park-entrepreneurship-academy-business-plan-competition-friday,-june-29.html\n'
p297
aS'http://www.purdue.edu/newsroom/releases/2012/Q2/purdue-research-park-recognizes-50-years-of-innovation-and-job-creation.html\n'
p298
aS'http://www.purdue.edu/newsroom/releases/2012/Q2/purdue-research-supports-key-element-of-concussion-lawsuit.html\n'
p299
aS'http://www.purdue.edu/newsroom/releases/2012/Q1/purdue-researcher-helps-robots-see-in-3-d-like-humans.html\n'
p300
aS'http://www.purdue.edu/newsroom/releases/2012/Q3/purdue-researcher-named-division-director-at-nasa.html\n'
p301
aS'http://www.purdue.edu/newsroom/releases/2012/Q2/purdue-retirees-honor-department-of-nutrition-science.html\n'
p302
aS'http://www.purdue.edu/newsroom/releases/2012/Q3/purdue-rises-to-56th-in-shanghai-world-university-rankings.html\n'
p303
aS'http://www.purdue.edu/newsroom/releases/2012/Q3/purdue-scientists-working-to-make-drought-resistant-crops.html\n'
p304
aS'http://www.purdue.edu/newsroom/releases/2012/Q3/purdue-specialists-have-array-of-expertise-in-salmonella.html\n'
p305
aS'http://www.purdue.edu/newsroom/releases/2012/Q3/purdue-spirit-community-contest-kicks-off.html\n'
p306
aS'http://www.purdue.edu/newsroom/releases/2012/Q2/purdue-students-embark-on-womens-cross-country-air-race.html\n'
p307
aS'http://www.purdue.edu/newsroom/releases/2012/Q3/purdue-students-invited-to-sept.-13-callout-for-100,000-competition.html\n'
p308
aS'http://www.purdue.edu/newsroom/releases/2012/Q2/purdue-students-make-lafayette-home-super-energy-efficient,-tours-available.html\n'
p309
aS'http://www.purdue.edu/newsroom/releases/2012/Q2/purdue-survey-farmland-purchases-expected-to-continue.html\n'
p310
aS'http://www.purdue.edu/newsroom/releases/2012/Q2/purdue-tap-expands-displaced-worker-green-training.html\n'
p311
aS'http://www.purdue.edu/newsroom/releases/2012/Q2/purdue-tap-offers-online-training-program.html\n'
p312
aS'http://www.purdue.edu/newsroom/releases/2012/Q3/purdue-tap-to-help-businesses-utilize-new-online-marketplace.html\n'
p313
aS'http://www.purdue.edu/newsroom/releases/2012/Q2/purdue-tapvincennes-university-add-southwest-indiana-manager.html\n'
p314
aS'http://www.purdue.edu/newsroom/releases/2012/Q3/purdue-theatre-to-present-a-midsummer-nights-dream.html\n'
p315
aS'http://www.purdue.edu/newsroom/releases/2012/Q3/purdue-to-celebrate-constitution-day.html\n'
p316
aS'http://www.purdue.edu/newsroom/releases/2012/Q2/purdue-to-move-art-gallery-downtown.html\n'
p317
aS'http://www.purdue.edu/newsroom/releases/2012/Q3/purdue-to-offer-energy-efficiency-workshop,-home-tours.html\n'
p318
aS'http://www.purdue.edu/newsroom/releases/2012/Q3/purdue-to-offer-evening-six-sigma-training-in-fort-wayne.html\n'
p319
aS'http://www.purdue.edu/newsroom/releases/2012/Q3/purdue-to-offer-lean-product-development-workshops.html\n'
p320
aS'http://www.purdue.edu/newsroom/releases/2012/Q3/purdue-to-offer-six-sigma-training-in-lafayette.html\n'
p321
aS'http://www.purdue.edu/newsroom/releases/2012/Q3/purdue-to-participate-in-celebrate-science-indiana.html\n'
p322
aS'http://www.purdue.edu/newsroom/releases/2012/Q3/purdue-to-test-emergency-all-hazards-outdoor-sirens-during-boiler-gold-rush.html\n'
p323
aS'http://www.purdue.edu/newsroom/releases/2012/Q1/purdue-trimester-plan-will-accelerate-time-to-degree,-enhance-educational-opportunities.html\n'
p324
aS'http://www.purdue.edu/newsroom/releases/2012/Q2/purdue-trustees-approve-construction-of-life-sciences-buildings.html\n'
p325
aS'http://www.purdue.edu/newsroom/releases/2012/Q3/purdue-trustees-approve-new-residence-hall,-food-services-building.html\n'
p326
aS'http://www.purdue.edu/newsroom/releases/2012/Q2/purdue-workshop-prepares-high-school-teachers,-students-for-global-synthetic-biology-competition.html\n'
p327
aS'http://www.purdue.edu/newsroom/releases/2012/Q3/purdue-workshop-to-focus-on-role-of-simulation-in-addressing-challenges-of-photovoltaic-science,-technology-and-manufacturing.html\n'
p328
aS'http://www.purdue.edu/newsroom/releases/2012/Q3/purdues-emerging-innovations-fund-sets-aug.-24-application-deadline.html\n'
p329
aS'http://www.purdue.edu/newsroom/releases/2012/Q3/purdues-latino-cultural-center-to-celebrate-10th-anniversary.html\n'
p330
aS'http://www.purdue.edu/newsroom/releases/2012/Q3/purdues-mep-names-associate-director-of-account-management.html\n'
p331
aS'http://www.purdue.edu/newsroom/releases/2012/Q3/purdues-science-on-tap-talk-to-focus-on-efforts-to-breed-hardier-honeybees.html\n'
p332
aS'http://www.purdue.edu/newsroom/releases/2012/Q3/purdues-shell-energy-day-to-highlight-new-frontiers-of-natural-gas-exploration-and-renewables.html\n'
p333
aS'http://www.purdue.edu/newsroom/releases/2012/Q3/rain-brings-relief-to-indiana,-but-drought-continues.html\n'
p334
aS'http://www.purdue.edu/newsroom/releases/2012/Q1/rap-music-powers-rhythmic-action-of-medical-sensor.html\n'
p335
aS'http://www.purdue.edu/newsroom/releases/2012/Q2/rapidly-cooling-eggs-can-double-shelf-life,-decrease-risk-of-illness1.html\n'
p336
aS'http://www.purdue.edu/newsroom/releases/2012/Q3/raymond-selected-as-new-director-of-discovery-parks-center-for-environment.html\n'
p337
aS'http://www.purdue.edu/newsroom/releases/2012/Q2/rebuilding-from-western-wildfires-begins-now-with-friendships,-social-networks.html\n'
p338
aS'http://www.purdue.edu/newsroom/releases/2012/Q3/recreational-center-to-begin-phased-opening-of-completed-areas.html\n'
p339
aS'http://www.purdue.edu/newsroom/releases/2012/Q3/red-tail-squadron-flying-to-purdue-to-honor-tuskegee-airmen.html\n'
p340
aS'http://www.purdue.edu/newsroom/releases/2012/Q3/reduced-cattle-herd-could-mean-bigger-profits-starting-late-2013.html\n'
p341
aS'http://www.purdue.edu/newsroom/releases/2012/Q3/regenstrief-launches-hospital-research-community-to-improve-infusion-pump-drug-delivery-system.html\n'
p342
aS'http://www.purdue.edu/newsroom/releases/2012/Q3/report-corn-ethanol-waivers-affect-on-corn-prices-uncertain.html\n'
p343
aS'http://www.purdue.edu/newsroom/releases/2012/Q3/reporters-calendar--purdue-events-for-journalists.html\n'
p344
aS'http://www.purdue.edu/newsroom/releases/2012/Q1/reporters-calendar-purdue-events-for-journalists1.html\n'
p345
aS'http://www.purdue.edu/newsroom/releases/2012/Q3/research-fungicides-helpful-when-diseases-are-present.html\n'
p346
aS'http://www.purdue.edu/newsroom/releases/2012/Q3/research-powerhouses-join-forces-in-new-multistate-venture.html\n'
p347
aS'http://www.purdue.edu/newsroom/releases/2012/Q3/researchers-fish-eye-view-could-offer-insights-for-human-vision.html\n'
p348
aS'http://www.purdue.edu/newsroom/releases/2012/Q2/researchers-sorghum-should-be-in-the-mix-as-a-biofuel-crop.html\n'
p349
aS'http://www.purdue.edu/newsroom/releases/2012/Q3/restaurant-smoking-bans-help-snuff-out-european-youth-smoking.html\n'
p350
aS'http://www.purdue.edu/newsroom/releases/2012/Q2/reward-offered-for-information-leading-to-prosecution-in-alleged-car-theft,-arson.html\n'
p351
aS'http://www.purdue.edu/newsroom/releases/2012/Q3/rotc-accepting-hall-of-fame-nominations.html\n'
p352
aS'http://www.purdue.edu/newsroom/releases/2012/Q1/rube-goldberg-contest-at-purdue.html\n'
p353
aS'http://www.purdue.edu/newsroom/releases/2012/Q3/russian-students-visit-purdue,-purdue-research-park-to-spark-entrepreneurial-learning.html\n'
p354
aS'http://www.purdue.edu/newsroom/releases/2012/Q3/safety-training-course-scheduled-to-educate-first-responders-about-advanced-electric-drive-vehicles.html\n'
p355
aS'http://www.purdue.edu/newsroom/releases/2012/Q3/science-on-tap-talk-to-focus-on-misconceptions-of-animal-use-in-medical-research.html\n'
p356
aS'http://www.purdue.edu/newsroom/releases/2012/Q3/science-on-tap-talk-to-focus-on-researching-next-generation-of-engines.html\n'
p357
aS'http://www.purdue.edu/newsroom/releases/2012/Q3/scientists-have-way-to-control-sugars-that-lead-to-diabetes,-obesity.html\n'
p358
aS'http://www.purdue.edu/newsroom/releases/2012/Q3/scientists-uncover-last-steps-for-benzoic-acid-creation-in-plants.html\n'
p359
aS'http://www.purdue.edu/newsroom/releases/2012/Q3/see-ballerina-vs.-flash-mob-at-postcards-concert.html\n'
p360
aS'http://www.purdue.edu/newsroom/releases/2012/Q3/seminar-to-help-agribusinesses-market-to-farmers.html\n'
p361
aS'http://www.purdue.edu/newsroom/releases/2012/Q3/sensor-detects-glucose-in-saliva-and-tears-for-diabetes-testing.html\n'
p362
aS'http://www.purdue.edu/newsroom/releases/2012/Q3/sept.-28-opening-of-recreational-sports-center-delayed.html\n'
p363
aS'http://www.purdue.edu/newsroom/releases/2012/Q3/short-crop-could-complicate-farmland-leases,-rent-payments.html\n'
p364
aS'http://www.purdue.edu/newsroom/releases/2012/Q3/signature-of-long-sought-particle-that-could-revolutionize-quantum-computing-seen-by-purdue-physicist.html\n'
p365
aS'http://www.purdue.edu/newsroom/releases/2012/Q3/skip-jackson-dog-jog-brings-canines-to-campus-sept.-22.html\n'
p366
aS'http://www.purdue.edu/newsroom/releases/2012/Q3/sliding-metals-show-fluidlike-behavior,-new-clues-to-wear.html\n'
p367
aS'http://www.purdue.edu/newsroom/releases/2012/Q3/smartmoney-ranks-purdue-degree-among-nations-top-10-buys.html\n'
p368
aS'http://www.purdue.edu/newsroom/releases/2012/Q3/software-developer,-entrepreneur-to-speak-about-micro-enterprises-it-needs-aug.-14.html\n'
p369
aS'http://www.purdue.edu/newsroom/releases/2012/Q2/south-shore-clean-cities,-nirpc-announce-propane-certification-class-for-vehicle-technicians.html\n'
p370
aS'http://www.purdue.edu/newsroom/releases/2012/Q3/specialist-controlling-lawn-weeds-in-drought-carries-risks.html\n'
p371
aS'http://www.purdue.edu/newsroom/releases/2012/Q3/specialist-recommends-weed-control-before-planting-winter-wheat-.html\n'
p372
aS'http://www.purdue.edu/newsroom/releases/2012/Q3/specialists-drought-creating-feed-shortages-for-indiana-dairies.html\n'
p373
aS'http://www.purdue.edu/newsroom/releases/2012/Q3/specialists-sell-grain-at-harvest-this-fall-store-only-if-necessary.html\n'
p374
aS'http://www.purdue.edu/newsroom/releases/2012/Q3/spensa-technologies-expands-staff,-announces-two-new-leadership-positions.html\n'
p375
aS'http://www.purdue.edu/newsroom/releases/2012/Q2/spider-mites-begin-to-inhabit-drought-stressed-soybean-fields.html\n'
p376
aS'http://www.purdue.edu/newsroom/releases/2012/Q3/state-fair-is-showtime-for-purdue-college-of-veterinary-medicine.html\n'
p377
aS'http://www.purdue.edu/newsroom/releases/2012/Q2/state-regulators-getting-word-out-about-new-fertilizer-rules-.html\n'
p378
aS'http://www.purdue.edu/newsroom/releases/2012/Q3/steps-suggested-for-purdue-alert-notification.html\n'
p379
aS'http://www.purdue.edu/newsroom/releases/2012/Q3/students-ability-to-connect-to-campus-events,-activities-gets-easier.html\n'
p380
aS'http://www.purdue.edu/newsroom/releases/2012/Q2/students-in-krannert-program-get-real-world-experience.html\n'
p381
aS'http://www.purdue.edu/newsroom/releases/2012/Q3/students-prefer-apps-to-the-web-when-using-smartphones.html\n'
p382
aS'http://www.purdue.edu/newsroom/releases/2012/Q3/students-to-design,-build-experiment-to-fly-on-space-station.html\n'
p383
aS'http://www.purdue.edu/newsroom/releases/2012/Q3/study-children-abused-by-parents-face-increased-cancer-risk.html\n'
p384
aS'http://www.purdue.edu/newsroom/releases/2012/Q3/study-hearing-impaired-ears-hear-differently-in-noisy-environments.html\n'
p385
aS'http://www.purdue.edu/newsroom/releases/2012/Q3/study-moms-can-be-stressed-when-certain-children-care-for-them.html\n'
p386
aS'http://www.purdue.edu/newsroom/releases/2012/Q2/study-no-fat,-low-fat-dressings-dont-get-most-nutrients-out-of-salads.html\n'
p387
aS'http://www.purdue.edu/newsroom/releases/2012/Q1/study-shines-light-on-ways-to-cut-costs-for-greenhouse-growers.html\n'
p388
aS'http://www.purdue.edu/newsroom/releases/2012/Q3/superconductor-flaws-could-be-key-to-its-abilities.html\n'
p389
aS'http://www.purdue.edu/newsroom/releases/2012/Q3/survey-indiana-farmland-values,-cash-rents-soar.html\n'
p390
aS'http://www.purdue.edu/newsroom/releases/2012/Q3/symposium-will-feature-presentations-on-the-connection-between-aging-and-diversity.html\n'
p391
aS'http://www.purdue.edu/newsroom/releases/2012/Q2/team-usa-selected-from-competition-at-purdue-for-international-biology-olympiad-in-singapore.html\n'
p392
aS'http://www.purdue.edu/newsroom/releases/2012/Q3/technology-developed-to-help-property-managers,-landlords-organize-rental-turn-over-process.html\n'
p393
aS'http://www.purdue.edu/newsroom/releases/2012/Q2/technology-licensed-through-purdue-office-of-technology-commercialization-named-rd-100-award-winner.html\n'
p394
aS'http://www.purdue.edu/newsroom/releases/2012/Q3/telework-advocacy-announces-4th-annual-telework-summit-in-indianapolis.html\n'
p395
aS'http://www.purdue.edu/newsroom/releases/2012/Q1/test-video-photo-abstract.html\n'
p396
aS'http://www.purdue.edu/newsroom/releases/2012/Q1/tiny-spherules-reveal-details-about-earths-asteroid-impacts.html\n'
p397
aS'http://www.purdue.edu/newsroom/releases/2012/Q2/title-ix-expert.html\n'
p398
aS'http://www.purdue.edu/newsroom/releases/2012/Q3/title-ix-service-awardees-announced-as-conference-nears.html\n'
p399
aS'http://www.purdue.edu/newsroom/releases/2012/Q3/tradition-bends-to-allow-silver-twins-to-continue.html\n'
p400
aS'http://www.purdue.edu/newsroom/releases/2012/Q2/trustees-elect-mitchell-e.-daniels-jr.-as-purdues-12th-president.html\n'
p401
aS'http://www.purdue.edu/newsroom/releases/2012/Q3/trustees-ratify-appointments,-approve-new-degree-programs.html\n'
p402
aS'http://www.purdue.edu/newsroom/releases/2012/Q3/tymora-analytical-operations-receives-150,000-nih-grant.html\n'
p403
aS'http://www.purdue.edu/newsroom/releases/2012/Q3/u.s.-sen.-lugar-to-headline-collegiate-energy-summit-at-purdue.html\n'
p404
aS'http://www.purdue.edu/newsroom/releases/2012/Q1/u.s.news-ranks-purdues-graduate-programs-among-nations-best.html\n'
p405
aS'http://www.purdue.edu/newsroom/releases/2012/Q3/undergraduate-research-program-plans-symposium.html\n'
p406
aS'http://www.purdue.edu/newsroom/releases/2012/Q2/updated-directory-of-research-grants-includes-more-than-6,000-opportunities.html\n'
p407
aS'http://www.purdue.edu/newsroom/releases/2012/Q3/wade-steffey-memorial-scholarship-awarded-to-3-indiana-students.html\n'
p408
aS'http://www.purdue.edu/newsroom/releases/2012/Q1/weather-brings-out-emerald-ash-borer-earlier-this-year.html\n'
p409
aS'http://www.purdue.edu/newsroom/releases/2012/Q3/weather-patterns-showing-signs-of-return-to-normal.html\n'
p410
aS'http://www.purdue.edu/newsroom/releases/2012/Q3/webinar-series-to-help-identify-agriculture-funding-sources.html\n'
p411
aS'http://www.purdue.edu/newsroom/releases/2012/Q3/webinar-to-help-guide-beef-producers-through-the-drought.html\n'
p412
aS'http://www.purdue.edu/newsroom/releases/2012/Q3/webinar-to-highlight-needs-of-veterans-in-agriculture.html\n'
p413
aS'http://www.purdue.edu/newsroom/releases/2012/Q3/webinar-to-provide-health-resources-for-drought-stressed-farmers.html\n'
p414
aS'http://www.purdue.edu/newsroom/releases/2012/Q3/weekly-liberal-arts-series-highlights-alumni.html\n'
p415
aS'http://www.purdue.edu/newsroom/releases/2012/Q3/west-nile-virus-and-mosquito-control-experts-available-.html\n'
p416
aS'http://www.purdue.edu/newsroom/releases/2012/Q1/what-to-expect-of-weather-for-super-bowl-week-look-at-history.html\n'
p417
aS'http://www.purdue.edu/newsroom/releases/2012/Q3/wild-native-shrub-suitable-for-home-landscape-plantings.html\n'
p418
aS'http://www.purdue.edu/newsroom/releases/2012/Q1/wisconsin-stout-repeats-as-rube-goldberg-winner.html\n'
p419
aS'http://www.purdue.edu/newsroom/releases/2012/Q3/women-in-agriculture-receive-special-recognition-at-state-fair.html\n'
p420
aS'http://www.purdue.edu/newsroom/releases/2012/Q3/women-in-engineering-invites-high-school-seniors-to-campus.html\n'
p421
aS'http://www.purdue.edu/newsroom/releases/2012/Q2/workshop-at-prophetstown-to-cover-horse-feed-management.html\n'
p422
aS'http://www.purdue.edu/newsroom/releases/2012/Q3/workshop-series-to-teach-successful-grant-writing.html\n'
p423
aS'http://www.purdue.edu/newsroom/releases/2012/Q3/workshop-to-aid-landowners-in-wildlife-management.html\n'
p424
aS'http://www.purdue.edu/newsroom/releases/2012/Q3/workshop-to-focus-on-forage-management,-drought.html\n'
p425
aS'http://www.purdue.edu/newsroom/releases/2012/Q2/workshop-to-focus-on-meat-goats-for-new,-veteran-producers.html\n'
p426
aS'http://www.purdue.edu/newsroom/releases/2012/Q2/workshop-to-help-teachers-use-engineering-design-in-science-classes-.html\n'
p427
aS'http://www.purdue.edu/newsroom/releases/2012/Q3/workshops-will-help-landowners-earn-income,-conserve-land.html\n'
p428
aS'http://www.purdue.edu/newsroom/releases/2012/Q3/wounded-vet,-actor-to-keynote-krannert-event.html\n'
p429
aS'http://www.purdue.edu/newsroom/releases/2012/Q3/youth-with-disabilities-invited-to-participate-in-purdue-swim,-sports-program.html\n'
p430
aS'http://www.purdue.edu/newsroom/releases/2013/Q3/1.5-million-grant-to-help-sophomores-gain-research-experience,-mentoring-in-statistics.html\n'
p431
aS'http://www.purdue.edu/newsroom/releases/2013/Q3/1.5-million-grant-to-help-sophomores-gain-research-experience,-mentoring-in-statistics.html\n'
p432
aS'http://www.purdue.edu/newsroom/releases/2013/Q3/11-purdue-researchers-won-nsf-early-career-awards-in-2012.html\n'
p433
aS'http://www.purdue.edu/newsroom/releases/2013/Q2/12th-pals-camp-to-help-more-than-500-local-youth.html\n'
p434
aS'http://www.purdue.edu/newsroom/releases/2013/Q2/2-purdue-professors-named-ace-fellows.html\n'
p435
aS'http://www.purdue.edu/newsroom/releases/2013/Q4/2013-world-film-forum-travels-to-italy,-uk,-china.html\n'
p436
aS'http://www.purdue.edu/newsroom/releases/2013/Q2/4-purdue-students-receive-full-ride-stamps-scholarships.html\n'
p437
aS'http://www.purdue.edu/newsroom/releases/2013/Q3/6-million-to-fund-2-professorships-in-history-of-medicine,-science.html\n'
p438
aS'http://www.purdue.edu/newsroom/releases/2013/Q1/65-million-committed-to-purdue-ag--universitys-largest-gift.html\n'
p439
aS'http://www.purdue.edu/newsroom/releases/2013/Q2/8-purdue-students-receive-full-ride-with-graduate-school-option.html\n'
p440
aS'http://www.purdue.edu/newsroom/releases/2013/Q1/advice-on-securing-federal-grants-offered-through-free-workshop.html\n'
p441
aS'http://www.purdue.edu/newsroom/releases/2013/Q4/advocare-certified-to-provide-utilization-review-for-state-medicaid-agencies.html\n'
p442
aS'http://www.purdue.edu/newsroom/purduetoday/releases/2013/Q3/after-hours-care-for-work-related-injuries-no-longer-available-at-greenbush-street-location.html\n'
p443
aS'http://www.purdue.edu/newsroom/releases/2013/Q3/ag-economist-2013-a-transition-year-for-grain-farmers.html\n'
p444
aS'http://www.purdue.edu/newsroom/releases/2013/Q3/agreliant-genetics,-purdue-ag-create-fund-for-student-research.html\n'
p445
aS'http://www.purdue.edu/newsroom/releases/2013/Q3/ahtna-youth-in-alaska-learn-about-historic-copper-tools,-technology-in-summer-program.html\n'
p446
aS'http://www.purdue.edu/newsroom/releases/2013/Q3/air-force-general-to-give-boeing-lecture.html\n'
p447
aS'http://www.purdue.edu/newsroom/releases/2013/Q3/alternative-materials-could-bring-plasmonic-technologies.html\n'
p448
aS'http://www.purdue.edu/newsroom/releases/2013/Q2/alumni-group-may-hold-venture-capital-secret-for-startups,-next-big-idea-from-purdue-faculty,-researchers.html\n'
p449
aS'http://www.purdue.edu/newsroom/releases/2013/Q2/angelina-jolies-double-mastectomy-highlights-need-for-advances-in-cancer-prevention,-not-just-treatment,-purdue-expert-says.html\n'
p450
aS'http://www.purdue.edu/newsroom/releases/2013/Q4/annual-crop-adviser-conference-set-for-dec.-17-18.html\n'
p451
aS'http://www.purdue.edu/newsroom/releases/2013/Q4/annual-crop-adviser-conference-set-for-dec.-17-18.html\n'
p452
aS'http://www.purdue.edu/newsroom/releases/2013/Q2/anonymous-gift-adds-1-million-to-nursing,-veterinary-scholarship-funds.html\n'
p453
aS'http://www.purdue.edu/newsroom/releases/2013/Q1/applications-available-for-purdue-alpha-chi-omega-arts-scholarship.html\n'
p454
aS'http://www.purdue.edu/newsroom/releases/2013/Q4/appointments,-honors-and-activities.html\n'
p455
aS'http://www.purdue.edu/newsroom/releases/2013/Q4/appointments,-honors-and-activities1.html\n'
p456
aS'http://www.purdue.edu/newsroom/releases/2013/Q4/appointments,-honors-and-activities2.html\n'
p457
aS'http://www.purdue.edu/newsroom/releases/2013/Q4/appointments,-honors-and-activities3.html\n'
p458
aS'http://www.purdue.edu/newsroom/releases/2013/Q4/appointments,-honors-and-activities4.html\n'
p459
aS'http://www.purdue.edu/newsroom/releases/2013/Q3/appointments,-honors-and-activities5.html\n'
p460
aS'http://www.purdue.edu/newsroom/releases/2013/Q3/appointments,-honors-and-activities6.html\n'
p461
aS'http://www.purdue.edu/newsroom/releases/2013/Q3/appointments,-honors-and-activities7.html\n'
p462
aS'http://www.purdue.edu/newsroom/releases/2013/Q3/appointments,-honors-and-activities8.html\n'
p463
aS'http://www.purdue.edu/newsroom/releases/2013/Q1/appointments,-honors-and-activities9.html\n'
p464
aS'http://www.purdue.edu/newsroom/releases/2013/Q2/apps-may-open-communication-door-for-children,-families-affected-by-severe,-non-verbal-autism.html\n'
p465
aS'http://www.purdue.edu/newsroom/releases/2013/Q2/arizona-state-associate-dean-to-lead-new-honors-college.html\n'
p466
aS'http://www.purdue.edu/newsroom/releases/2012/Q3/armstrong-memorialized-at-purdue-service.html\n'
p467
aS'http://www.purdue.edu/newsroom/releases/2013/Q4/artspowers-little-engine-that-could-comes-to-lafayette.html\n'
p468
aS'http://www.purdue.edu/newsroom/purduetoday/releases/2013/Q4/assistive-technology-available-at-most-benefits-enrollment-walk-in-labs.html\n'
p469
aS'http://www.purdue.edu/newsroom/releases/2013/Q3/assistive-wheelchair-tray-could-help-people-with-disabilities-use-ipads,-other-mobile-devices-more-easily.html\n'
p470
aS'http://www.purdue.edu/newsroom/releases/2013/Q4/asteroid-expert-says-surveillance-is-key-to-survival-planning-is-key-to-defense.html\n'
p471
aS'http://www.purdue.edu/newsroom/releases/2013/Q4/astronaut-bridges-to-speak-on-campus.html\n'
p472
aS'http://www.purdue.edu/newsroom/releases/2013/Q4/astronaut-buzz-aldrin-to-speak-at-purdue.html\n'
p473
aS'http://www.purdue.edu/newsroom/releases/2013/Q4/author-michelle-alexander-to-speak-at-purdue.html\n'
p474
aS'http://www.purdue.edu/newsroom/releases/2013/Q3/award-winning-cio-reichental-to-talk-at-purdue-about-innovation,-open-data-in-local-government.html\n'
p475
aS'http://www.purdue.edu/newsroom/purduetoday/releases/2013/Q3/benefit-sessions-announced-for-spanish,-chinese-and-vietnamese-speakers.html\n'
p476
aS'http://www.purdue.edu/newsroom/purduetoday/releases/2013/Q4/benefits-open-enrollment-begins-today.html\n'
p477
aS'http://www.purdue.edu/newsroom/purduetoday/releases/2013/Q4/benefits-open-enrollment-guides-coming-monday.html\n'
p478
aS'http://www.purdue.edu/newsroom/releases/2013/Q1/bindley-bioscience-center-plans-discovery-day-to-showcase-research.html\n'
p479
aS'http://www.purdue.edu/newsroom/releases/2013/Q3/bindley-to-host-life-sciences-forum-to-broaden-industry-connections.html\n'
p480
aS'http://www.purdue.edu/newsroom/releases/2013/Q2/bird-flu-expert-working-on-vaccine-that-protects-against-multiple-strains.html\n'
p481
aS'http://www.purdue.edu/newsroom/releases/2013/Q4/bishop-gene-robinson-to-speak-at-purdue.html\n'
p482
aS'http://www.purdue.edu/newsroom/releases/2013/Q3/blister-packs-increase-shelf-life-of-multidrug-resistant-tuberculosis-medicine.html\n'
p483
aS'http://www.purdue.edu/newsroom/releases/2012/Q3/calling-on-students-make-the-call.html\n'
p484
aS'http://www.purdue.edu/newsroom/releases/2013/Q2/camp-for-military-kids-revived-after-loss-of-federal-funding.html\n'
p485
aS'http://www.purdue.edu/newsroom/releases/2013/Q1/campus-group-sponsors-diversity-in-comics-conference.html\n'
p486
aS'http://www.purdue.edu/newsroom/releases/2013/Q4/carnatic-singer-ahbishek-raghuram-to-perform-at-purdue.html\n'
p487
aS'http://www.purdue.edu/newsroom/releases/2013/Q4/cattle-prices-continue-to-climb-as-herd-numbers-fall.html\n'
p488
aS'http://www.purdue.edu/newsroom/releases/2013/Q4/cell-detection-system-promising-for-medical-research,-diagnostics.html\n'
p489
aS'http://www.purdue.edu/newsroom/purduetoday/releases/2013/Q3/center-for-healthy-living-offering-sports-physicals.html\n'
p490
aS'http://www.purdue.edu/newsroom/purduetoday/releases/2013/Q3/center-for-healthy-living-profile-kamal-singh.html\n'
p491
aS'http://www.purdue.edu/newsroom/purduetoday/releases/2013/Q4/center-for-healthy-living-to-offer-array-of-fall-workshops.html\n'
p492
aS'http://www.purdue.edu/newsroom/purduetoday/releases/2013/Q4/changes-to-perf-benefits-coming-in-2014.html\n'
p493
aS'http://www.purdue.edu/newsroom/releases/2013/Q4/changing-climate-could-have-mixed-results-for-vineyards.html\n'
p494
aS'http://www.purdue.edu/newsroom/releases/2012/Q4/chemical-engineering-alum-to-endow-professorship.html\n'
p495
aS'http://www.purdue.edu/newsroom/releases/2012/Q3/civil-engineering-building-to-be-named-for-alumnus.html\n'
p496
aS'http://www.purdue.edu/newsroom/releases/2012/Q4/coache-faculty-survey-finds-purdues-strengths,-areas-for-improvement.html\n'
p497
aS'http://www.purdue.edu/newsroom/releases/2013/Q3/collaboration-software-company-grows,-graduates-from-purdue-research-park.html\n'
p498
aS'http://www.purdue.edu/newsroom/releases/2013/Q4/college-of-agriculture,-purdue-university-libraries-seek-graduate-students-for-semester-long-data-literacy-pilot-program.html\n'
p499
aS'http://www.purdue.edu/newsroom/releases/2013/Q4/college-of-education-to-honor-4-alumni.html\n'
p500
aS'http://www.purdue.edu/newsroom/releases/2012/Q4/college-of-health-and-human-sciences-dean-finalists-to-participate-in-open-forums.html\n'
p501
aS'http://www.purdue.edu/newsroom/releases/2013/Q1/college-of-technology-week-hardwired-for-success.html\n'
p502
aS'http://www.purdue.edu/newsroom/releases/2013/Q4/college-of-veterinary-medicine-names-2013-distinguished-alumni.html\n'
p503
aS'http://www.purdue.edu/newsroom/releases/2012/Q3/college-students-balance-academic-success-with-grief,-ill-parents.html\n'
p504
aS'http://www.purdue.edu/newsroom/releases/2013/Q2/college-students-working-out-at-campus-gyms-get-better-grades.html\n'
p505
aS'http://www.purdue.edu/newsroom/releases/2013/Q4/colloquium-to-explore-engineering-education-at-purdue.html\n'
p506
aS'http://www.purdue.edu/newsroom/releases/2013/Q2/company-launches-new-software-program-to-help-firms-boost-sales-and-marketing.html\n'
p507
aS'http://www.purdue.edu/newsroom/purduetoday/releases/2013/Q3/completing-form-in-advance-speeds-up-first-visit-at-center-for-healthy-living.html\n'
p508
aS'http://www.purdue.edu/newsroom/releases/2012/Q4/computer-science-workshop-for-students-and-parents-asks-are-you-smarter-than-your-5th-grader.html\n'
p509
aS'http://www.purdue.edu/newsroom/releases/2013/Q4/conservation-easements-preserve-land-for-agriculture.html\n'
p510
aS'http://www.purdue.edu/newsroom/releases/2013/Q3/cooks-to-be-conferred-dreyfus-prize,-medal.html\n'
p511
aS'http://www.purdue.edu/newsroom/releases/2013/Q4/corn-crops-expected-to-set-record,-but-not-as-large-as-anticipated.html\n'
p512
aS'http://www.purdue.edu/newsroom/releases/2012/Q4/creator-of-aids-memorial-quilt-to-speak-at-purdue-on-nov.-29.html\n'
p513
aS'http://www.purdue.edu/newsroom/releases/2013/Q4/cross-cultural-communication-topic-of-lecture-at-purdue.html\n'
p514
aS'http://www.purdue.edu/newsroom/releases/2013/Q1/cultural-studies-professor-to-speak-at-purdue-on-women-in-hip-hop.html\n'
p515
aS'http://www.purdue.edu/newsroom/releases/2012/Q4/cyber-cop-says-newtown-shooters-footprints-are-in-virtual-cloud.html\n'
p516
aS'http://www.purdue.edu/newsroom/releases/2013/Q4/cybersecurity-firm-to-dedicate-facility-in-purdue-research-park.html\n'
p517
aS'http://www.purdue.edu/newsroom/releases/2013/Q4/daniels,-ges-immelt-hold-public-discussion-on-innovation,-talent-.html\n'
p518
aS'http://www.purdue.edu/newsroom/releases/2013/Q3/daniels,-ges-immelt-to-hold-public-discussion-on-innovation,-talent.html\n'
p519
aS'http://www.purdue.edu/newsroom/releases/2013/Q2/daniels-announces-changes-to-purdue-wage-proposal.html\n'
p520
aS'http://www.purdue.edu/newsroom/releases/2013/Q3/daniels-taking-purdues-message-to-national-stage.html\n'
p521
aS'http://www.purdue.edu/newsroom/releases/2013/Q2/daniels-to-grads-world-may-be-uncertain-but-boilermakers-shouldnt-be.html\n'
p522
aS'http://www.purdue.edu/newsroom/releases/2013/Q4/deactivated-student-organizations-can-regain-status.html\n'
p523
aS'http://www.purdue.edu/newsroom/purduetoday/releases/2013/Q4/deductible-will-be-waived-on-all-preventive-prescription-drugs-for-2014.html\n'
p524
aS'http://www.purdue.edu/newsroom/releases/2013/Q4/deeply-rooted-dance-theatre-to-debut-generations-2013-oct.-30-at-purdue.html\n'
p525
aS'http://www.purdue.edu/newsroom/releases/2013/Q4/deeply-rooted-dance-theatre-to-debut-generations-2013-oct.-30-at-purdue.html\n'
p526
aS'GENERATOR\n'
p527
aS'http://www.purdue.edu/newsroom/releases/2012/Q3/detroit-theme-of-black-cultural-centers-fall-series.html\n'
p528
aS'http://www.purdue.edu/newsroom/releases/2013/Q4/device-speeds-concentration-step-in-food-pathogen-detection.html\n'
p529
aS'http://www.purdue.edu/newsroom/releases/2013/Q3/director-of-purdue-university-center-for-cancer-research-to-speak-at-next-science-on-tap.html\n'
p530
aS'http://www.purdue.edu/newsroom/releases/2013/Q3/discovery-of-gene-function-may-help-prevent-kidney-stones.html\n'
p531
aS'http://www.purdue.edu/newsroom/releases/2013/Q2/discovery-points-to-new-approach-to-fight-dengue-virus.html\n'
p532
aS'http://www.purdue.edu/newsroom/releases/2013/Q1/division-of-financial-aid-reminds-students-to-file-fafsa.html\n'
p533
aS'http://www.purdue.edu/newsroom/releases/2013/Q4/doktor-kaboom-returns-to-purdue-with-its-just-rocket-science.html\n'
p534
aS'http://www.purdue.edu/newsroom/releases/2013/Q2/drug-discovery,-development-firm-joins-purdue-research-park.html\n'
p535
aS'http://www.purdue.edu/newsroom/releases/2013/Q4/drug-may-reduce-chronic-pain-for-spinal-cord-injuries.html\n'
p536
aS'http://www.purdue.edu/newsroom/releases/2013/Q3/dry-weather,-excessive-heat-still-choking-indiana-corn.html\n'
p537
aS'http://www.purdue.edu/newsroom/releases/2013/Q3/dry-weather-threatens-previously-optimistic-hogs-outlook.html\n'
p538
aS'http://www.purdue.edu/newsroom/releases/2013/Q4/duke-energy-chairman-to-speak-on-u.s.-energy-future-at-purdues-discovery-lecture-series.html\n'
p539
aS'http://www.purdue.edu/newsroom/releases/2013/Q4/early-fall-is-a-good-time-to-assess-pastures,-plan-improvements.html\n'
p540
aS'http://www.purdue.edu/newsroom/releases/2013/Q4/ejeta-is-appointed-to-u.n.-scientific-advisory-board.html\n'
p541
aS'http://www.purdue.edu/newsroom/releases/2013/Q4/ejeta-is-appointed-to-u.n.-scientific-advisory-board.html\n'
p542
aS'http://www.purdue.edu/newsroom/releases/2013/Q4/ejeta-is-appointed-to-u.n.-scientific-advisory-board.html\n'
p543
aS'http://www.purdue.edu/newsroom/releases/2013/Q1/electrical-engineering-professor-honored-with-purdue-research-award.html\n'
p544
aS'http://www.purdue.edu/newsroom/purduetoday/releases/2013/Q4/employees-should-plan-catch-up-tax-deferred-annuity-contributions-in-advance.html\n'
p545
aS'http://www.purdue.edu/newsroom/purduetoday/releases/2013/Q4/employees-who-dont-enroll-will-be-placed-in-highest-deductible-medical-plan-for-2014.html\n'
p546
aS'http://www.purdue.edu/newsroom/releases/2013/Q4/engineering-pre-eminent-teams-get-priority-in-hiring.html\n'
p547
aS'http://www.purdue.edu/newsroom/releases/2013/Q3/enterscape-launches-new-utility-usage-data-tool,-offers-free-trial.html\n'
p548
aS'http://www.purdue.edu/newsroom/releases/2013/Q2/evcs-jimmy-simpson-wins-56th-annual-purdue-grand-prix.html\n'
p549
aS'http://www.purdue.edu/newsroom/purduetoday/releases/2013/Q3/evening-sessions-added-for-two-benefit-presentations-daytime-sessions-continue-in-september.html\n'
p550
aS'http://www.purdue.edu/newsroom/releases/2013/Q4/event-to-honor-purdue-donors-richard,-suzanne-belcher.html\n'
p551
aS'http://www.purdue.edu/newsroom/releases/2013/Q1/events-focus-on-asians-and-asian-americans,-cultural-understanding.html\n'
p552
aS'http://www.purdue.edu/newsroom/releases/2012/Q2/excited-about-a-cloudy-future-at-purdue-university-and-emc-bringing-massive-data-storage-to-students-and-faculty.html\n'
p553
aS'http://www.purdue.edu/newsroom/releases/2013/Q1/exhibit-at-purdue-features-works-of-famous-suffragist-cartoonist.html\n'
p554
aS'http://www.purdue.edu/newsroom/releases/2013/Q3/expert-on-hurricane-katrina-anniversary.html\n'
p555
aS'http://www.purdue.edu/newsroom/releases/2012/Q3/experts-to-speak-on-immigration-and-the-2012-election.html\n'
p556
aS'http://www.purdue.edu/newsroom/releases/2013/Q4/extension-specialist-offers-reminders,-advice-for-winter-wheat-planting.html\n'
p557
aS'http://www.purdue.edu/newsroom/releases/2013/Q3/extension-to-offer-2014-agricultural-outlook-webinar.html\n'
p558
aS'http://www.purdue.edu/newsroom/releases/2013/Q1/faculty,-staff-applications-for-trask-innovation-fund-awards-due-april-12.html\n'
p559
aS'http://www.purdue.edu/newsroom/releases/2012/Q3/faculty-fellow-at-discovery-learning-research-center-focuses-on-distance-learning-in-cancer,-chronic-disease-prevention.html\n'
p560
aS'http://www.purdue.edu/newsroom/releases/2013/Q4/famed-estonian-philharmonic-chamber-choir-to-perform-at-purdue.html\n'
p561
aS'http://www.purdue.edu/newsroom/releases/2013/Q4/farm-to-school-event-to-showcase-innovative-program-connecting----k-12-schools-to-better-nutrition,-ag-careers.html\n'
p562
aS'http://www.purdue.edu/newsroom/releases/2013/Q3/farmers,-landlords-enter-lease-renegotiations-as-fall-approaches.html\n'
p563
aS'http://www.purdue.edu/newsroom/releases/2013/Q3/farmers-should-avoid-overgrazing,-check-forage-inventories-now.html\n'
p564
aS'http://www.purdue.edu/newsroom/releases/2013/Q2/ferruzzi-chosen-for-purdue-agricultural-research-award.html\n'
p565
aS'http://www.purdue.edu/newsroom/releases/2013/Q3/ffa-chapters-earn-prizes-for-community-service-projects.html\n'
p566
aS'http://www.purdue.edu/newsroom/releases/2013/Q4/fiction-reading-with-paul-harding.html\n'
p567
aS'http://www.purdue.edu/newsroom/releases/2012/Q4/financial-aid-presentations-to-offer-information-for-students,-parents.html\n'
p568
aS'http://www.purdue.edu/newsroom/releases/2013/Q1/financial-aid-programs-to-offer-help-to-students,-families.html\n'
p569
aS'http://www.purdue.edu/newsroom/releases/2013/Q4/financial-analyst-meredith-whitney-to-speak-at-purdue-on-nov.-14.html\n'
p570
aS'http://www.purdue.edu/newsroom/releases/2013/Q4/financial-analyst-meredith-whitney-to-speak-at-purdue-on-nov.-14.html\n'
p571
aS'http://www.purdue.edu/newsroom/releases/2013/Q4/financial-analyst-meredith-whitney-to-speak-at-purdue-on-nov.-14.html\n'
p572
aS'http://www.purdue.edu/newsroom/releases/2013/Q1/findings-to-help-in-design-of-drugs-against-virus-causing-childhood-illnesses.html\n'
p573
aS'http://www.purdue.edu/newsroom/releases/2013/Q2/fire-units-respond-to-fire-at-fraternity-house.html\n'
p574
aS'http://www.purdue.edu/newsroom/releases/2013/Q2/firms-new-services-hold-promise-to-improve-efficiency-for-telecommunications-clients.html\n'
p575
aS'http://www.purdue.edu/newsroom/releases/2013/Q3/five-purdue-innovations-receive-more-than-200,000-from-trask-innovation-fund.html\n'
p576
aS'http://www.purdue.edu/newsroom/releases/2013/Q2/focus-on-color-means-white-veggies-dropped-like-a-hot-potato.html\n'
p577
aS'http://www.purdue.edu/newsroom/releases/2013/Q3/forage-production-for-biomass-energy-to-be-showcased-at-workshop.html\n'
p578
aS'http://www.purdue.edu/newsroom/releases/2013/Q3/formula-will-help-when-estimating-soybean-yield-potential.html\n'
p579
aS'http://www.purdue.edu/newsroom/releases/2013/Q3/free-app-offers-accessible-way-to-identify-plant-problems.html\n'
p580
aS'http://www.purdue.edu/newsroom/purduetoday/releases/2013/Q3/free-flu-shots-available-at-center-for-healthy-living-in-october-and-november.html\n'
p581
aS'http://www.purdue.edu/newsroom/releases/2013/Q1/free-workshop-on-navigating-fda-and-other-federal-regulatory-pathways-offered.html\n'
p582
aS'http://www.purdue.edu/newsroom/releases/2013/Q4/friends-of-extension-recognized-for-their-service-to-4-h.html\n'
p583
aS'http://www.purdue.edu/newsroom/releases/2013/Q3/ge-digital-energy-executive-to-deliver-discovery-lecture-on-developing-electricity-system-collaborations.html\n'
p584
aS'http://www.purdue.edu/newsroom/releases/2013/Q2/gettysburg,-civil-war-expert.html\n'
p585
aS'http://www.purdue.edu/newsroom/releases/2013/Q3/giant-molecules-win-purdue-professor-the-hamburg-prize-for-theoretical-physics.html\n'
p586
aS'http://www.purdue.edu/newsroom/releases/2013/Q3/gift-to-fund-purdue-institute-for-civic-communication.html\n'
p587
aS'http://www.purdue.edu/newsroom/releases/2013/Q2/global-policy-research-institute-awards-first-graduate-research-fellowships.html\n'
p588
aS'http://www.purdue.edu/newsroom/releases/2013/Q4/grain-handling-specialist-offers-tips-for-protecting-stored-grain.html\n'
p589
aS'http://www.purdue.edu/newsroom/releases/2013/Q3/grain-storage-safety-training-offered-for-young-workers.html\n'
p590
aS'http://www.purdue.edu/newsroom/releases/2013/Q4/gravity-defying-leo-to-perform-at-purdue-university.html\n'
p591
aS'http://www.purdue.edu/newsroom/releases/2013/Q4/greater-lafayette-startup-weekend-brings-entrepreneurs-together.html\n'
p592
aS'http://www.purdue.edu/newsroom/releases/2013/Q4/green-stem-syndrome-present-in-some-indiana-soybean-fields.html\n'
p593
aS'http://www.purdue.edu/newsroom/releases/2013/Q3/gullah-stories,-songs-featured-in-bcc-presentation-at-fowler-hall.html\n'
p594
aS'http://www.purdue.edu/newsroom/releases/2013/Q4/halloween-monsters,-scares-on-tv-are-year-round-fare.html\n'
p595
aS'http://www.purdue.edu/newsroom/releases/2013/Q4/harry-potter-parody-comes-to-purdue.html\n'
p596
aS'http://www.purdue.edu/newsroom/releases/2013/Q1/hasler-appointed-president-of-purdue-research-foundation.html\n'
p597
aS'http://www.purdue.edu/newsroom/releases/2013/Q2/health-and-kinesiology-teams-with-ywca-to-offer-exercise-program-for-cancer-survivors.html\n'
p598
aS'http://www.purdue.edu/newsroom/releases/2013/Q2/health-care-data-management-firm-joins-purdue-research-park.html\n'
p599
aS'http://www.purdue.edu/newsroom/releases/2013/Q4/high-nitrogen-rates-increase-micronutrient-uptake,-storage-in-corn.html\n'
p600
aS'http://www.purdue.edu/newsroom/releases/2013/Q1/holocaust-conference-events-scheduled-april-6-16.html\n'
p601
aS'http://www.purdue.edu/newsroom/releases/2013/Q2/hoosier-harvest-market-food-hub-to-begin-taking-online-orders.html\n'
p602
aS'http://www.purdue.edu/newsroom/releases/2013/Q3/hot,-dry-spell-damaging-indiana-corn-and-soybean-crops.html\n'
p603
aS'http://www.purdue.edu/newsroom/purduetoday/releases/2013/Q4/hr-announces-new-2014-benefit-session,-plus-online-recorded-sessions.html\n'
p604
aS'http://www.purdue.edu/newsroom/purduetoday/releases/2013/Q3/hr-connect-e-newsletter-launches-today.html\n'
p605
aS'http://www.purdue.edu/newsroom/purduetoday/releases/2013/Q4/human-resources-making-courtesy-phone-calls-to-faculty,-staff-who-have-not-enrolled-for-2014.html\n'
p606
aS'http://www.purdue.edu/newsroom/releases/2013/Q4/hurt-falling-feed-prices-to-push-hogs-back-to-profitable.html\n'
p607
aS'http://www.purdue.edu/newsroom/releases/2013/Q4/hurt-higher-corn,-soybean-yields-put-indiana-grain-industry-back-to-work.html\n'
p608
aS'http://www.purdue.edu/newsroom/releases/2013/Q2/imaging-tech-firm-launches-mini-spectrometer,-will-present-at-2013-spie-defense,-security-and-sensing.html\n'
p609
aS'http://www.purdue.edu/newsroom/releases/2013/Q2/imaging-technology-could-lower-coronary-disease-mortality-rate.html\n'
p610
aS'http://www.purdue.edu/newsroom/releases/2013/Q2/in-package-plasma-process-quickly,-effectively-kills-bacteria.html\n'
p611
aS'http://www.purdue.edu/newsroom/releases/2013/Q2/ind.,-ky.-students-to-attend-inaugural-new-albany-entrepreneurship-academy.html\n'
p612
aS'robots\n'
p613
aS'http://www.purdue.edu/newsroom/releases/2013/Q2/indiana,-kentucky-high-school-students-complete-entrepreneurship-program,-earn-vouchers.html\n'
p614
aS'http://www.purdue.edu/newsroom/releases/2013/Q4/indiana-fall-weather-absent-a-dominant-driver-this-year.html\n'
p615
aS'http://www.purdue.edu/newsroom/releases/2013/Q2/indiana-farmers-now-ahead-of-five-year-pace-in-planting-crops.html\n'
p616
aS'http://www.purdue.edu/newsroom/releases/2013/Q3/indiana-high-school-students-showcase-entrepreneurship-skills,-win-tuition-vouchers.html\n'
p617
aS'http://www.purdue.edu/newsroom/releases/2013/Q2/indiana-high-school-students-to-learn-entrepreneurial-process,-economic-development-at-academy1.html\n'
p618
aS'http://www.purdue.edu/newsroom/releases/2013/Q3/indiana-property-owners-advised-of-walnut-tree-disease.html\n'
p619
aS'http://www.purdue.edu/newsroom/releases/2013/Q4/indiana-pumpkin-production-good,-even-with-2-seasons.html\n'
p620
aS'http://www.purdue.edu/newsroom/releases/2013/Q2/indots-cline-selected-as-purdues-vp-for-physical-facilities.html\n'
p621
aS'http://www.purdue.edu/newsroom/releases/2013/Q2/industrial-utility-monitoring-firm-hires-director-of-business-development.html\n'
p622
aS'http://www.purdue.edu/newsroom/releases/2012/Q3/initiative-offers-path-for-students-to-graduate-in-4-years.html\n'
p623
aS'http://www.purdue.edu/newsroom/releases/2013/Q3/interlocking-segments-might-be-3-d-printed,-assembled-into-parts.html\n'
p624
aS'http://www.purdue.edu/newsroom/releases/2013/Q4/international-think-tank-on-breast-cancer-prevention-offers-initial-recommendations.html\n'
p625
aS'http://www.purdue.edu/newsroom/releases/2013/Q3/international-wine-competition-returns-to-purdue.html\n'
p626
aS'http://www.purdue.edu/newsroom/releases/2013/Q1/invasive-asian-carp-may-be-able-to-spread-further-than-once-thought.html\n'
p627
aS'http://www.purdue.edu/newsroom/releases/2012/Q3/iu-health-arnett-plans-investment-in-lyles-porter-hall.html\n'
p628
aS'http://www.purdue.edu/newsroom/releases/2012/Q3/kane-named-inaugural-director-of-lgbtq-center-at-purdue.html\n'
p629
aS'http://www.purdue.edu/newsroom/releases/2013/Q1/korean-culture-day-set-for-feb.-15-at-purdues-stewart-center.html\n'
p630
aS'http://www.purdue.edu/newsroom/releases/2013/Q3/krannert-dinner-to-feature-awards,-keynote-from-gergen.html\n'
p631
aS'http://www.purdue.edu/newsroom/releases/2012/Q1/krannert-mba-program-improves-in-financial-times-rankings.html\n'
p632
aS'http://www.purdue.edu/newsroom/releases/2013/Q2/krannert-offering-accelerated-weekend-mba-program.html\n'
p633
aS'http://www.purdue.edu/newsroom/releases/2012/Q2/krannert-to-offer-updated-human-resource-management-program.html\n'
p634
aS'http://www.purdue.edu/newsroom/releases/2013/Q4/lab-to-provide-purdue-entrepreneurs-space-to-refine-concepts,-build-prototypes.html\n'
p635
aS'http://www.purdue.edu/newsroom/releases/2013/Q3/lafayette-ywca-program-wins-purdue-award-.html\n'
p636
aS'http://www.purdue.edu/newsroom/releases/2013/Q3/late-blight-disease-found-on-indiana-tomato-samples.html\n'
p637
aS'http://www.purdue.edu/newsroom/releases/2013/Q2/layered-2-d-nanocrystals-promising-new-semiconductor.html\n'
p638
aS'http://www.purdue.edu/newsroom/releases/2012/Q3/lechtenberg-named-purdues-acting-provost.html\n'
p639
aS'http://www.purdue.edu/newsroom/releases/2013/Q2/legal-levels-of-atrazine-alter-neuroendocrine,-reproductive-genes-in-zebrafish.html\n'
p640
aS'screen, projection, tv\n'
p641
aS'http://www.purdue.edu/newsroom/releases/2013/Q1/m4-sciences-signs-second-agreement-with-belgium-based-nv-bekaert-sa-to-expand-machining-technology-in-global-metals-market.html\n'
p642
aS'http://www.purdue.edu/newsroom/releases/2012/Q4/mathematics-alum-gives-1.5-million-to-endow-professorship.html\n'
p643
aS'http://www.purdue.edu/newsroom/releases/2012/Q4/mathematics-alum-gives-1.5-million-to-endow-professorship.html\n'
p644
aS'http://www.purdue.edu/newsroom/releases/2013/Q2/matrix-bio-options-metabolite-biomarker-technology-from-purdue-university-to-evaluate-opportunities-for-new-cancer-diagnostic-tests.html\n'
p645
aS'http://www.purdue.edu/newsroom/releases/2013/Q2/matrix-bio-signs-metabolomics-biomarker-licensing-agreement-with-quest-diagnostics-for-development-of-breast-cancer-recurrence-test.html\n'
p646
aS'http://www.purdue.edu/newsroom/releases/2013/Q4/mcdonalds-ceo-to-speak-at-purdue-ag-alumni-fish-fry.html\n'
p647
aS'http://www.purdue.edu/newsroom/releases/2013/Q1/mechanical-engineering-alum-gives-gift-for-professorship,-celebrates-daniels-arrival.html\n'
p648
aS'http://www.purdue.edu/newsroom/releases/2013/Q1/media-advisory-candlelight-vigil,-commemorative-address-to-celebrate-dr.-martin-luther-king-jr..html\n'
p649
aS'http://www.purdue.edu/newsroom/purduetoday/releases/2013/Q4/medicare-prescription-notice-sent-in-error.html\n'
p650
aS'http://www.purdue.edu/newsroom/releases/2013/Q1/metasurfaces-to-usher-in-new-optical-technologies.html\n'
p651
aS'http://www.purdue.edu/newsroom/releases/2013/Q4/mfri-hosting-third-annual-stand-down-for-homeless-veterans.html\n'
p652
aS'http://www.purdue.edu/newsroom/releases/2013/Q3/mild-weather-leads-to-fewer-pests,-unusual-damage-to-crops.html\n'
p653
aS'http://www.purdue.edu/newsroom/releases/2013/Q3/milky-way-gas-cloud-causes-multiple-images-of-distant-quasar.html\n'
p654
aS'http://www.purdue.edu/newsroom/releases/2012/Q4/molecularhub-gives-scientific-information-on-fast-moving-diseases.html\n'
p655
aS'http://www.purdue.edu/newsroom/releases/2013/Q1/moore,-jimerson-to-receive-purdues-dreamer-award.html\n'
p656
aS'http://www.purdue.edu/newsroom/purduetoday/releases/2013/Q3/more-2014-medical-plan-information-added-to-website.html\n'
p657
aS'http://www.purdue.edu/newsroom/releases/2013/Q3/nanoparticles,-ph-phoresis-could-improve-cancer-drug-delivery.html\n'
p658
aS'http://www.purdue.edu/newsroom/releases/2013/Q1/nanosystems-industry-expert-to-deliver-discovery-lecture-at-purdue.html\n'
p659
aS'http://www.purdue.edu/newsroom/releases/2013/Q4/native-american-educational-and-cultural-center-to-celebrate-heritage-month.html\n'
p660
aS'right\n'
p661
aS'http://www.purdue.edu/newsroom/releases/2012/Q3/neil-armstrong-memorial-service-set-for-aug.-27-on-purdue-campus.html\n'
p662
aS'http://www.purdue.edu/newsroom/releases/2012/Q4/new-4-d-transistor-is-preview-of-future-computers.html\n'
p663
aS'http://www.purdue.edu/newsroom/releases/2013/Q2/new-apps-put-gardening-solutions-at-tips-of-users-fingers.html\n'
p664
aS'http://www.purdue.edu/newsroom/releases/2013/Q4/new-center-to-lead-purdue-efforts-in-computational-nanotechnology,-materials-and-devices-development.html\n'
p665
aS'http://www.purdue.edu/newsroom/releases/2012/Q3/new-design-tool-nixes-mouse-users-create-shapes-with-hands-only.html\n'
p666
aS'http://www.purdue.edu/newsroom/releases/2013/Q1/new-effort-to-create-green-electronics,-workforce.html\n'
p667
aS'http://www.purdue.edu/newsroom/releases/2013/Q2/new-imaging-technology-could-reveal-cellular-secrets.html\n'
p668
aS'http://www.purdue.edu/newsroom/releases/2012/Q4/new-interactive-system-detects-touch-and-gestures-on-any-surface.html\n'
p669
aS'http://www.purdue.edu/newsroom/releases/2012/Q3/new-krannert-program-aimed-at-helping-undergrads-launch-careers.html\n'
p670
aS'http://www.purdue.edu/newsroom/releases/2013/Q1/new-modeling-approach-transforms-imaging-technologies.html\n'
p671
aS'http://www.purdue.edu/newsroom/releases/2013/Q3/new-program-moves-more-purdue-students-to-study-abroad.html\n'
p672
aS'http://www.purdue.edu/newsroom/releases/2013/Q2/new-purdue-graduate-fellowship-program-designed-to-prepare-interdisciplinary-leaders.html\n'
p673
aS'http://www.purdue.edu/newsroom/releases/2013/Q3/new-purdue-lab-focused-on-finding-drugs-to-prevent-vision-loss.html\n'
p674
aS'http://www.purdue.edu/newsroom/releases/2013/Q3/new-resource-supports-indiana-military-families,-veterans.html\n'
p675
aS'http://www.purdue.edu/newsroom/purduetoday/releases/2013/Q3/new-reward,-recognition-program-to-roll-out-for-eligible-faculty,-staff.html\n'
p676
aS'http://www.purdue.edu/newsroom/releases/2013/Q4/new-service-helps-schools-adapt-classrooms-for-students-who-are-blind-or-visually-impaired.html\n'
p677
aS'http://www.purdue.edu/newsroom/releases/2013/Q3/new-steering-tech-for-heavy-equipment-saves-fuel,-ups-efficiency.html\n'
p678
aS'http://www.purdue.edu/newsroom/releases/2013/Q3/new-students-begin-purdue-experience-with-orientation-program.html\n'
p679
aS'http://www.purdue.edu/newsroom/releases/2013/Q2/new-system-for-purdue-libraries-will-streamline-workflows,-improve-analytics.html\n'
p680
aS'http://www.purdue.edu/newsroom/releases/2013/Q2/new-video-highlights-how-tech-is-transforming-higher-ed.html\n'
p681
aS'http://www.purdue.edu/newsroom/purduetoday/releases/2013/Q3/newly-hired-non-exempt-staff-to-participate-in-new-retirement-plan.html\n'
p682
aS'http://www.purdue.edu/newsroom/releases/2013/Q3/nigerian-company-licenses-purdue-crop-storage-system-that-deters-insects.html\n'
p683
aS'http://www.purdue.edu/newsroom/releases/2013/Q4/nih-grant-could-develop-technology-to-help-personalize-leukemia-treatments.html\n'
p684
aS'http://www.purdue.edu/newsroom/releases/2012/Q2/no-sleep-energy-bugs-drain-smartphone-batteries.html\n'
p685
aS'http://www.purdue.edu/newsroom/releases/2013/Q4/noah-named-vice-president-for-development.html\n'
p686
aS'http://www.purdue.edu/newsroom/releases/2013/Q2/nominations-sought-for-women-in-agriculture-awards.html\n'
p687
aS'http://www.purdue.edu/newsroom/releases/2013/Q1/non-invasive-diabetic-testing-device,-personalized-cancer-care-technique-claim-top-prizes-at-100,000-burton-d.-morgan-business-plan-competition.html\n'
p688
aS'http://www.purdue.edu/newsroom/releases/2013/Q4/november-weekend-exhibition-features-variety-of-installation-art.html\n'
p689
aS'http://www.purdue.edu/newsroom/releases/2012/Q2/nuclear-weapon-simulations-show-performance-in-molecular-detail.html\n'
p690
aS'http://www.purdue.edu/newsroom/releases/2013/Q4/nutrabiotix-llc-receives-2.5-million-federal-grant-to-develop-purdue-designed-fiber.html\n'
p691
aS'http://www.purdue.edu/newsroom/releases/2013/Q4/nutrabiotix-llc-receives-2.5-million-federal-grant-to-develop-purdue-designed-fiber.html\n'
p692
aS'http://www.purdue.edu/newsroom/releases/2013/Q4/nutrabiotix-llc-receives-2.5-million-federal-grant-to-develop-purdue-designed-fiber.html\n'
p693
aS'http://www.purdue.edu/newsroom/releases/2013/Q4/nutrition-program-earns-purdue-extension-hancook-award.html\n'
p694
aS'http://www.purdue.edu/newsroom/releases/2013/Q3/nutrition-science-professor-named-to-2015-dietary-guidelines-advisory-committee.html\n'
p695
aS'http://www.purdue.edu/newsroom/releases/2013/Q4/orcid-grant-enables-purdue-libraries-to-connect-scientists-to-their-research.html\n'
p696
aS'http://www.purdue.edu/newsroom/releases/2013/Q4/outstanding-service-recognized-by-purdue-extension.html\n'
p697
aS'http://www.purdue.edu/newsroom/releases/2013/Q2/pekny-selected-as-interim-director-designate-for-discovery-parks-burton-d.-morgan-center-for-entrepreneurship.html\n'
p698
aS'http://www.purdue.edu/newsroom/releases/2013/Q2/perfinity,-thermo-fisher-scientific-sign-co-marketing-agreement-for-automated-online-biopharmaceutical-analysis-system.html\n'
p699
aS'http://www.purdue.edu/newsroom/purduetoday/releases/2013/Q3/pet-insurance-becomes-available-through-purdue-on-monday.html\n'
p700
aS'http://www.purdue.edu/newsroom/releases/2013/Q3/pharmaceutical,-biotech-services-company-becomes-purdue-research-park-tenant.html\n'
p701
aS'http://www.purdue.edu/newsroom/releases/2013/Q4/plant-pathologist-growers-should-be-aware-of-new-soybean-virus.html\n'
p702
aS'http://www.purdue.edu/newsroom/releases/2013/Q3/plant-pathologist-several-corn-ear-rots-possible-this-year.html\n'
p703
aS'http://www.purdue.edu/newsroom/releases/2013/Q4/poetry-reading-with-rodney-jones.html\n'
p704
aS'http://www.purdue.edu/newsroom/releases/2013/Q4/poor-stalk-health-means-corn-growers-need-to-prioritize-harvest.html\n'
p705
aS'http://www.purdue.edu/newsroom/releases/2013/Q3/post-wins-highest-award-given-by-purdue-college-of-pharmacy.html\n'
p706
aS'http://www.purdue.edu/newsroom/releases/2013/Q2/prof-alcohol-impairment-goes-beyond-bac-number.html\n'
p707
aS'http://www.purdue.edu/newsroom/releases/2013/Q2/prof-can-discuss-aspects-of-disaster-recovery-from-destructive-wildfires.html\n'
p708
aS'http://www.purdue.edu/newsroom/releases/2013/Q3/prof-diet-drinks-are-not-the-sweet-solution-to-fight-obesity,-health-problems.html\n'
p709
aS'http://www.purdue.edu/newsroom/releases/2013/Q2/prof-how-to-help-children-cope-with-tornado-season-fears.html\n'
p710
aS'http://www.purdue.edu/newsroom/releases/2013/Q3/prof-nations-first-military-park-celebrates-battles-150th-anniversary.html\n'
p711
aS'http://www.purdue.edu/newsroom/releases/2013/Q2/prof-put-energy-drinks-to-rest-during-summers-heat.html\n'
p712
aS'http://www.purdue.edu/newsroom/releases/2013/Q4/prof-sandy-communities-rebuilding-should-strengthen-more-than-just-structures.html\n'
p713
aS'http://www.purdue.edu/newsroom/releases/2013/Q1/professional-basketball-league-adopts-swoosh-electronic-statistics-program.html\n'
p714
aS'http://www.purdue.edu/newsroom/releases/2013/Q3/professional-selling-center-plans-fall-workshop,-competitions.html\n'
p715
aS'http://www.purdue.edu/newsroom/releases/2013/Q3/professor-boruch-to-graduates.html\n'
p716
aS'http://www.purdue.edu/newsroom/releases/2013/Q3/program-provides-fun,-learning-activities-to-children-with-disabilities.html\n'
p717
aS'http://www.purdue.edu/newsroom/releases/2013/Q4/project-aims-to-mass-produce-nanopetals-for-sensors,-batteries.html\n'
p718
aS'http://www.purdue.edu/newsroom/releases/2013/Q4/public-opinion-expert-gov.-shutdown-provides-canvas-for-future-party-leaders.html\n'
p719
aS'http://www.purdue.edu/newsroom/releases/2013/Q4/public-opinion-expert-gov.-shutdown-provides-canvas-for-future-party-leaders.html\n'
p720
aS'http://www.purdue.edu/newsroom/releases/2013/Q4/public-opinion-expert-gov.-shutdown-provides-canvas-for-future-party-leaders.html\n'
p721
aS'http://www.purdue.edu/newsroom/releases/2013/Q3/publication-helps-homeowners-identify,-repair-tree-damage.html\n'
p722
aS'http://www.purdue.edu/newsroom/releases/2013/Q4/purdue,-coursenetworking-to-collaborate-on-next-generation-edtech.html\n'
p723
aS'http://www.purdue.edu/newsroom/releases/2013/Q3/purdue,-indy-partnership-hold-economic-development-summit.html\n'
p724
aS'http://www.purdue.edu/newsroom/releases/2013/Q4/purdue,-iu-to-showcase-technologies-for-commercialization-at-oct.-9-event-in-fort-wayne.html\n'
p725
aS'text/css\n'
p726
aS'http://www.purdue.edu/newsroom/releases/2013/Q2/purdue,-jackson-lab-combine-genetics,-engineering.html\n'
p727
aS'http://www.purdue.edu/newsroom/releases/2013/Q1/purdue,-lincoln-institute-to-offer-leadership-class-with-gettysburg-component.html\n'
p728
aS'http://www.purdue.edu/newsroom/releases/2013/Q3/purdue,-other-indiana-college-students-invited-to-sept.-25-callout-for-100,000-contest.html\n'
p729
aS'http://www.purdue.edu/newsroom/releases/2013/Q3/purdue,-other-indiana-college-students-invited-to-sept.-25-callout-for-100,000-contest.html\n'
p730
aS'http://www.purdue.edu/newsroom/releases/2012/Q3/purdue,-west-lafayette-to-welcome-students-living-off-campus.html\n'
p731
aS'http://www.purdue.edu/newsroom/releases/2013/Q1/purdue--pearson-partner-to-include-online-writing-lab-in-new-mobile-learning-resource.html\n'
p732
aS'http://www.purdue.edu/newsroom/releases/2012/Q1/purdue-ag,-biological-engineering-earns-top-ranking-again.html\n'
p733
aS'http://www.purdue.edu/newsroom/releases/2013/Q4/purdue-ag-students-to-get-advice-from-entrepreneurs.html\n'
p734
aS'http://www.purdue.edu/newsroom/releases/2013/Q3/purdue-ag-to-receive-major-funding-for-plant-sciences.html\n'
p735
aS'http://www.purdue.edu/newsroom/releases/2013/Q4/purdue-alumnus-to-discuss-newspaper-evolution,-digital-age.html\n'
p736
aS'http://www.purdue.edu/newsroom/releases/2013/Q4/purdue-anthropologist-selected-for-2015-race-across-usa-to-combine-3,000-mile-run-with-research.html\n'
p737
aS'http://www.purdue.edu/newsroom/releases/2012/Q3/purdue-apps-aiding-law-enforcement,-public-safety-agencies.html\n'
p738
aS'http://www.purdue.edu/newsroom/releases/2012/Q3/purdue-band-members-to-fly-worlds-largest-drum-into-largest-lake.html\n'
p739
aS'http://www.purdue.edu/newsroom/releases/2012/Q4/purdue-black-cultural-centers-annual-cultural-arts-festival-friday.html\n'
p740
aS'http://www.purdue.edu/newsroom/releases/2012/Q3/purdue-brings-peer-institutions-together-for-future-graduate-students.html\n'
p741
aS'http://www.purdue.edu/newsroom/releases/2013/Q2/purdue-builds-nations-fastest-campus-supercomputeragain.html\n'
p742
aS'http://www.purdue.edu/newsroom/releases/2013/Q3/purdue-center-for-cancer-research-part-of-big-ten-cancer-research-consortium.html\n'
p743
aS'http://www.purdue.edu/newsroom/releases/2013/Q3/purdue-chemistry-show-creates-slime,-explores-the-chemistry-of-polymers.html\n'
p744
aS'http://www.purdue.edu/newsroom/releases/2013/Q2/purdue-college-of-agriculture-names-top-students-for-2012-13.html\n'
p745
aS'http://www.purdue.edu/newsroom/releases/2013/Q2/purdue-college-of-veterinary-medicine-offers-free-eye-exams-for-service-dogs.html\n'
p746
aS'http://www.purdue.edu/newsroom/releases/2012/Q3/purdue-college-of-veterinary-medicines-priority-4-paws-to-benefit-animal-shelters,-students.html\n'
p747
aS'http://www.purdue.edu/newsroom/releases/2013/Q3/purdue-commercialization-assistant-vice-president-to-testify-before-congressional-committee-on-technology-transfer.html\n'
p748
aS'http://www.purdue.edu/newsroom/releases/2013/Q4/purdue-conference-helps-minority-business-owners-network.html\n'
p749
aS'http://www.purdue.edu/newsroom/releases/2013/Q1/purdue-confers-degrees-following-fall-semester.html\n'
p750
aS'http://www.purdue.edu/newsroom/releases/2013/Q3/purdue-continues-7-year-trend-of-attracting-high-quality-students.html\n'
p751
aS'http://www.purdue.edu/newsroom/releases/2012/Q3/purdue-convocations-offers-ways-for-students-to-get-involved.html\n'
p752
aS'http://www.purdue.edu/newsroom/releases/2012/Q4/purdue-doctoral-student-named-u.s.-kauffman-global-scholar.html\n'
p753
aS'http://www.purdue.edu/newsroom/releases/2012/Q3/purdue-donations-of-nearly-300-million-second-highest-in-university-history.html\n'
p754
aS'http://www.purdue.edu/newsroom/releases/2013/Q4/purdue-e-pubs-celebrates-5-millionth-download,-success-of-highly-utilized-collections-and-their-impact-on-research.html\n'
p755
aS'http://www.purdue.edu/newsroom/releases/2013/Q3/purdue-economist-realistic-renewable-fuel-standard-attainable.html\n'
p756
aS'http://www.purdue.edu/newsroom/releases/2013/Q3/purdue-economists-urge-farm-budget-calculations,-offer-guide.html\n'
p757
aS'http://www.purdue.edu/newsroom/releases/2013/Q1/purdue-engineering-students-to-compete-in-regional,-national-competitions.html\n'
p758
aS'http://www.purdue.edu/newsroom/releases/2013/Q2/purdue-engineering-students-win-regional-competition,-100,000.html\n'
p759
aS'http://www.purdue.edu/newsroom/releases/2013/Q3/purdue-engineering-to-boost-research-relationships-with-industry.html\n'
p760
aS'http://www.purdue.edu/newsroom/releases/2013/Q4/purdue-expert-black-friday-isnt-just-for-november.html\n'
p761
aS'http://www.purdue.edu/newsroom/releases/2013/Q3/purdue-expert-holiday-retail-sales-likely-to-lag-behind-last-year.html\n'
p762
aS'http://www.purdue.edu/newsroom/releases/2013/Q4/purdue-expert-offers-research-update-on-cornstalk-nitrate-tests.html\n'
p763
aS'http://www.purdue.edu/newsroom/releases/2013/Q4/purdue-expert-retailers-dealing-with-showrooming.html\n'
p764
aS'http://www.purdue.edu/newsroom/releases/2013/Q3/purdue-extension-at-state-fair-education,-fun-at-same-time.html\n'
p765
aS'http://www.purdue.edu/newsroom/releases/2013/Q4/purdue-extension-educators-honored-with-annual-awards.html\n'
p766
aS'http://www.purdue.edu/newsroom/releases/2013/Q3/purdue-extension-to-host-webinar-on-funding-opportunities.html\n'
p767
aS'http://www.purdue.edu/newsroom/releases/2013/Q4/purdue-extension-to-offer-food-safety-regulations-workshop.html\n'
p768
aS'http://www.purdue.edu/newsroom/releases/2013/Q4/purdue-extension-to-offer-sheep,-goat-educational-webinars.html\n'
p769
aS'http://www.purdue.edu/newsroom/releases/2013/Q1/purdue-features-5-students-dedicated-to-health,-wellness.html\n'
p770
aS'http://www.purdue.edu/newsroom/releases/2013/Q2/purdue-features-5-students-for-the-month-of-april.html\n'
p771
aS'http://www.purdue.edu/newsroom/releases/2012/Q4/purdue-features-5-students-interests-and-hobbies.html\n'
p772
aS'http://www.purdue.edu/newsroom/releases/2013/Q1/purdue-features-5-students-who-work-for-equality.html\n'
p773
aS'http://www.purdue.edu/newsroom/releases/2013/Q1/purdue-features-five-students-crafting-their-mark-on-the-world-of-design.html\n'
p774
aS'http://www.purdue.edu/newsroom/releases/2012/Q4/purdue-features-students-who-are-making-news.html\n'
p775
aS'http://www.purdue.edu/newsroom/releases/2012/Q3/purdue-focuses-on-growing-global-leaders-at-2012-indiana-black-expo.html\n'
p776
aS'http://www.purdue.edu/newsroom/releases/2013/Q3/purdue-focuses-on-youth-at-2013-indiana-black-expo.html\n'
p777
aS'http://www.purdue.edu/newsroom/releases/2013/Q4/purdue-forage-specialist-evaluate-alfalfa-stands-this-fall.html\n'
p778
aS'http://www.purdue.edu/newsroom/releases/2013/Q4/purdue-galleries-presents-a-big-fat-scary-deal-and-an-intro-to-its-collection.html\n'
p779
aS'http://www.purdue.edu/newsroom/releases/2013/Q2/purdue-gay-and-lesbian-professionals-sponsor-second-film-festival.html\n'
p780
aS'http://www.purdue.edu/newsroom/releases/2013/Q1/purdue-graduate-engineering-online-program-ranked-4th-by-u.s.news.html\n'
p781
aS'http://www.purdue.edu/newsroom/releases/2013/Q4/purdue-grapevine-series-presents-wine-buying-how-to.html\n'
p782
aS'http://www.purdue.edu/newsroom/releases/2013/Q3/purdue-healthcare-advisors-celebrates-national-health-it-week-sept.-16-20.html\n'
p783
aS'http://www.purdue.edu/newsroom/releases/2013/Q4/purdue-helps-bring-splashcon-to-indianapolis-provides-unique-opportunity-to-indiana-computer-science-students.html\n'
p784
aS'http://www.purdue.edu/newsroom/releases/2012/Q4/purdue-highlights-students-with-boilermaker-family-ties.html\n'
p785
aS'http://www.purdue.edu/newsroom/releases/2013/Q3/purdue-historian-named-president-elect-of-the-society-of-civil-war-historians.html\n'
p786
aS'http://www.purdue.edu/newsroom/releases/2013/Q4/purdue-historian-takes-international-look-at-famous-lincoln-douglas-rivalry.html\n'
p787
aS'http://www.purdue.edu/newsroom/releases/2012/Q1/purdue-in-princeton-reviews-top-150-best-value-colleges.html\n'
p788
aS'http://www.purdue.edu/newsroom/releases/2013/Q2/purdue-innovation-could-help-people-with-severe-hearing-loss.html\n'
p789
aS'http://www.purdue.edu/newsroom/releases/2013/Q3/purdue-innovation-could-improve-personalized-cancer-care-outcomes.html\n'
p790
aS'http://www.purdue.edu/newsroom/releases/2013/Q4/purdue-innovation-kills-waterborne-microorganisms,-produces-safer-drinking-water.html\n'
p791
aS'http://www.purdue.edu/newsroom/releases/2013/Q1/purdue-latino-cultural-center-announces-busy-spring-semester-of-activities.html\n'
p792
aS'http://www.purdue.edu/newsroom/releases/2013/Q3/purdue-launches-search-for-liberal-arts-dean.html\n'
p793
aS'http://www.purdue.edu/newsroom/releases/2013/Q3/purdue-launches-website-to-help-entrepreneurs,-investors,-collaborators.html\n'
p794
aS'http://www.purdue.edu/newsroom/releases/2013/Q2/purdue-led-team-demonstrates-innovative-app-at-event-hosted-by-mozilla,-national-science-foundation.html\n'
p795
aS'http://www.purdue.edu/newsroom/releases/2013/Q3/purdue-libraries,-college-of-engineering-initiative-aimed-at-lifelong-learning.html\n'
p796
aS'http://www.purdue.edu/newsroom/releases/2013/Q4/purdue-libraries-celebrates-open-access-week-with-open-education-and-research-events,-journal-editors-group-tea.html\n'
p797
aS'http://www.purdue.edu/newsroom/releases/2012/Q4/purdue-libraries-to-extend-hours-as-students-prepare-for-finals.html\n'
p798
aS'http://www.purdue.edu/newsroom/releases/2013/Q1/purdue-march,-rally-marks-100th-anniversary-of-womens-march.html\n'
p799
aS'http://www.purdue.edu/newsroom/releases/2013/Q3/purdue-meeting-to-examine-timely,-costly-issue-of-invasive-species.html\n'
p800
aS'http://www.purdue.edu/newsroom/releases/2012/Q4/purdue-names-2012-homecoming-queen-and-king.html\n'
p801
aS'http://www.purdue.edu/newsroom/releases/2013/Q3/purdue-names-2013-homecoming-queen-and-king-candidates.html\n'
p802
aS'http://www.purdue.edu/newsroom/releases/2013/Q3/purdue-names-2013-homecoming-queen-and-king.html\n'
p803
aS'http://www.purdue.edu/newsroom/releases/2013/Q2/purdue-names-five-students-who-are-patenting-their-inventions.html\n'
p804
aS'http://www.purdue.edu/newsroom/releases/2013/Q3/purdue-names-interim-vice-provost-for-faculty-affairs.html\n'
p805
aS'http://www.purdue.edu/newsroom/releases/2013/Q1/purdue-names-winners-of-first-engagement-awards.html\n'
p806
aS'http://www.purdue.edu/newsroom/releases/2013/Q3/purdue-next-online-learning-program-set-to-debut.html\n'
p807
aS'http://www.purdue.edu/newsroom/releases/2012/Q3/purdue-offering-new-degree-in-environmental-and-ecological-engineering.html\n'
p808
aS'http://www.purdue.edu/newsroom/releases/2013/Q1/purdue-officials-report-on-state-of-commercialization,-research-and-information-technology.html\n'
p809
aS'http://www.purdue.edu/newsroom/releases/2013/Q3/purdue-online-series-is-guide-to-indiana-grapes-and-wines.html\n'
p810
aS'http://www.purdue.edu/newsroom/releases/2013/Q4/purdue-ostracism-expert-included-in-reject-documentary.html\n'
p811
aS'http://www.purdue.edu/newsroom/releases/2013/Q2/purdue-part-of-first-industry-led-collaborative-life-sciences-research-institute-in-the-united-states.html\n'
p812
aS'http://www.purdue.edu/newsroom/releases/2013/Q3/purdue-partners-with-statewide-stem-festival-for-students-at-indianapolis-motor-speedway.html\n'
p813
aS'http://www.purdue.edu/newsroom/releases/2013/Q4/purdue-peace-project-helps-resolve-leadership-conflict-in-berekum,-ghana.html\n'
p814
aS'http://www.purdue.edu/newsroom/releases/2013/Q3/purdue-physicists-part-of-discovery-of-rare-particle-decay-predicted-by-the-standard-model.html\n'
p815
aS'http://www.purdue.edu/newsroom/releases/2013/Q1/purdue-places-fraternity-on-probation.html\n'
p816
aS'http://www.purdue.edu/newsroom/releases/2013/Q4/purdue-plans-to-strengthen-computer-science-program,-educate-more-students.html\n'
p817
aS'http://www.purdue.edu/newsroom/releases/2013/Q3/purdue-presents-new-technologies-at-road-show-in-northwest-indiana.html\n'
p818
aS'http://www.purdue.edu/newsroom/releases/2013/Q4/purdue-president-daniels-to-be-part-of-nbcs-education-nation-panel.html\n'
p819
aS'http://www.purdue.edu/newsroom/releases/2013/Q2/purdue-professor-elected-to-national-academy-of-sciences.html\n'
p820
aS'http://www.purdue.edu/newsroom/releases/2013/Q2/purdue-professor-elected-to-the-american-academy-of-arts-and-sciences.html\n'
p821
aS'http://www.purdue.edu/newsroom/releases/2013/Q4/purdue-professor-has-idea-for-improving-the-nba-draft.html\n'
p822
aS'http://www.purdue.edu/newsroom/releases/2013/Q2/purdue-professor-identifies-proton-pathway-in-photosynthesis.html\n'
p823
aS'http://www.purdue.edu/newsroom/releases/2013/Q4/purdue-professor-named-poptech-science-fellow.html\n'
p824
aS'http://www.purdue.edu/newsroom/releases/2013/Q2/purdue-professor-part-of-national-study-of-science-education-specialists.html\n'
p825
aS'http://www.purdue.edu/newsroom/releases/2013/Q2/purdue-professor-receives-koreas-highest-research-honor.html\n'
p826
aS'http://www.purdue.edu/newsroom/releases/2013/Q2/purdue-professor-wins-dreyfus-prize-in-the-chemical-sciences.html\n'
p827
aS'http://www.purdue.edu/newsroom/releases/2013/Q4/purdue-profs-use-gaming-to-spark-kids-stem-interest,-improve-physical-fitness.html\n'
p828
aS'http://www.purdue.edu/newsroom/releases/2013/Q3/purdue-programs-help-youth-learn-about-veterinary-medicine-careers.html\n'
p829
aS'http://www.purdue.edu/newsroom/releases/2013/Q2/purdue-projects-help-cities-increase-efficiency,-cut-costs.html\n'
p830
aS'http://www.purdue.edu/newsroom/releases/2013/Q4/purdue-quidditch-team-gets-ready-for-potted-potter.html\n'
p831
aS'http://www.purdue.edu/newsroom/releases/2013/Q3/purdue-readies-rollout-of-major-campus-initiatives.html\n'
p832
aS'http://www.purdue.edu/newsroom/releases/2013/Q3/purdue-receives-1.2-million-to-study-large-aging-population-with-multiple-chronic-conditions.html\n'
p833
aS'http://www.purdue.edu/newsroom/releases/2013/Q3/purdue-receives-1.2-million-to-study-large-aging-population-with-multiple-chronic-conditions.html\n'
p834
aS'http://www.purdue.edu/newsroom/releases/2013/Q4/purdue-receives-transformation-grant-from-nsfs-alliances-for-graduate-education-and-professoriate-program.html\n'
p835
aS'http://www.purdue.edu/newsroom/releases/2012/Q3/purdue-recognizes-five-new-boilermakers.html\n'
p836
aS'http://www.purdue.edu/newsroom/releases/2013/Q3/purdue-recognizes-new-graduates,-honor-students.html\n'
p837
aS'http://www.purdue.edu/newsroom/releases/2013/Q2/purdue-reorganizes-printing-operation,-reduces-staff.html\n'
p838
aS'http://www.purdue.edu/newsroom/releases/2013/Q2/purdue-research-foundation-to-recognize-university-researchers-who-received-patents.html\n'
p839
aS'http://www.purdue.edu/newsroom/releases/2013/Q3/purdue-research-park-based-firm-advocates-for-patients-peace-of-mind.html\n'
p840
aS'http://www.purdue.edu/newsroom/releases/2013/Q4/purdue-research-park-vice-president-receives-career-achievement-award.html\n'
p841
aS'http://www.purdue.edu/newsroom/releases/2013/Q1/purdue-researchers-awarded-1-million-w.m.-keck-foundation-grant.html\n'
p842
aS'http://www.purdue.edu/newsroom/releases/2013/Q2/purdue-researchers-new-tool-for-the-organic-chemist-toolbox-licensed-to-sigma-aldrich.html\n'
p843
aS'http://www.purdue.edu/newsroom/releases/2013/Q2/purdue-researchers-seek-treatment-for-new-mers-coronavirus.html\n'
p844
aS'http://www.purdue.edu/newsroom/releases/2013/Q1/purdue-researchers-win-14.5-million-nsf-grant-to-take-nanohub.org-to-next-level.html\n'
p845
aS'http://www.purdue.edu/newsroom/releases/2013/Q3/purdue-researchers-working-on-missile-defense-software.html\n'
p846
aS'http://www.purdue.edu/newsroom/releases/2013/Q2/purdue-retirees-honor-department-of-biochemistry.html\n'
p847
aS'http://www.purdue.edu/newsroom/releases/2013/Q2/purdue-retirement-and-savings-plan-changed-for-new-non-exempt-hires.html\n'
p848
aS'http://www.purdue.edu/newsroom/releases/2013/Q4/purdue-science-on-tap-features-talk-on-key-role-of-animal-modeling-in-biomedical,-cardiovascular-research.html\n'
p849
aS'http://www.purdue.edu/newsroom/releases/2013/Q3/purdue-software-boosts-graduation-rate-21-percent-by-data-mining-academic-behviors.html\n'
p850
aS'http://www.purdue.edu/newsroom/releases/2013/Q3/purdue-software-toolkit-provides-visual-analytics-to-aid-law-enforcement,-first-responders.html\n'
p851
aS'http://www.purdue.edu/newsroom/releases/2013/Q2/purdue-specialist-warns-of-disease-deadly-to-impatiens--.html\n'
p852
aS'http://www.purdue.edu/newsroom/releases/2013/Q4/purdue-student-fundraising-center-has-new-name.html\n'
p853
aS'http://www.purdue.edu/newsroom/releases/2013/Q2/purdue-student-supercomputing-team-headed-for-international-competition-in-germany.html\n'
p854
aS'http://www.purdue.edu/newsroom/releases/2013/Q4/purdue-student-union-board-to-salute-veterans.html\n'
p855
aS'http://www.purdue.edu/newsroom/releases/2013/Q2/purdue-students,-organizations-earn-awards.html\n'
p856
aS'http://www.purdue.edu/newsroom/releases/2013/Q2/purdue-students-invention-could-improve-workplace-safety.html\n'
p857
aS'http://www.purdue.edu/newsroom/releases/2013/Q4/purdue-students-to-build-habitat-for-humanity-house.html\n'
p858
aS'http://www.purdue.edu/newsroom/releases/2013/Q3/purdue-study-buses-fueled-by-natural-gas-a-better-option-now.html\n'
p859
aS'http://www.purdue.edu/newsroom/releases/2013/Q2/purdue-study-seeks-infant-siblings-of-children-with-autism.html\n'
p860
aS'http://www.purdue.edu/newsroom/releases/2013/Q4/purdue-study-shale-oil-and-gas-a-long-term-boon-to-economy.html\n'
p861
aS'http://www.purdue.edu/newsroom/releases/2013/Q2/purdue-stuttering-project-receives-3-million-research-grant.html\n'
p862
aS'http://www.purdue.edu/newsroom/releases/2013/Q4/purdue-team-heading-effort-to-create-ag-research-data-system.html\n'
p863
aS'http://www.purdue.edu/newsroom/releases/2013/Q3/purdue-team-leading-stuttering-research-to-speak-at-science-on-tap.html\n'
p864
aS'http://www.purdue.edu/newsroom/releases/2013/Q3/purdue-technology-center-provides-247-co-working-space-program-for-business-people.html\n'
p865
aS'http://www.purdue.edu/newsroom/releases/2013/Q2/purdue-technology-centers-named-finalist-for-international-award.html\n'
p866
aS'http://www.purdue.edu/newsroom/releases/2013/Q4/purdue-technology-that-helps-surgeons-see-cancer-tissue-is-being-tested.html\n'
p867
aS'http://www.purdue.edu/newsroom/releases/2013/Q3/purdue-to-accelerate-drug-discovery,-development.html\n'
p868
aS'http://www.purdue.edu/newsroom/releases/2013/Q2/purdue-to-award-10-honorary-doctorates-during-spring-commencement.html\n'
p869
aS'http://www.purdue.edu/newsroom/releases/2012/Q4/purdue-to-celebrate-national-coming-out-day.html\n'
p870
aS'http://www.purdue.edu/newsroom/releases/2013/Q2/purdue-to-expand-entrepreneurship-hub,-increase-commercialization-endeavors-.html\n'
p871
aS'http://www.purdue.edu/newsroom/releases/2013/Q2/purdue-to-host-2nd-summer-institute-on-global-food-security.html\n'
p872
aS'http://www.purdue.edu/newsroom/releases/2013/Q4/purdue-to-host-community-forums-on-ostracism.html\n'
p873
aS'http://www.purdue.edu/newsroom/releases/2013/Q3/purdue-to-host-deming-institute-conference.html\n'
p874
aS'http://www.purdue.edu/newsroom/releases/2013/Q3/purdue-to-host-national-conference-for-agribusiness.html\n'
p875
aS'http://www.purdue.edu/newsroom/releases/2013/Q4/purdue-to-host-veterans-for-entrepreneurship-program.html\n'
p876
aS'http://www.purdue.edu/newsroom/releases/2012/Q4/purdue-to-increase-engineering-faculty-by-a-third.html\n'
p877
aS'http://www.purdue.edu/newsroom/releases/2013/Q4/purdue-to-increase-marked-bicycle-routes-on-west-lafayette-campus.html\n'
p878
aS'http://www.purdue.edu/newsroom/releases/2012/Q4/purdue-to-lead-faa-center-on-general-aviation.html\n'
p879
aS'http://www.purdue.edu/newsroom/releases/2013/Q4/purdue-traffic-website-aims-to-help-travelers-enter-and-exit-stadium-area-parking-easily,-find-nearby-hotels.html\n'
p880
aS'http://www.purdue.edu/newsroom/releases/2013/Q2/purdue-treasure-the-deans-bible-to-get-home-in-university-archives.html\n'
p881
aS'http://www.purdue.edu/newsroom/releases/2013/Q2/purdue-trustees-approve-faculty-promotions.html\n'
p882
aS'http://www.purdue.edu/newsroom/releases/2013/Q2/purdue-trustees-approve-new-music-hall,-renovations-to-academic-and-living-spaces.html\n'
p883
aS'http://www.purdue.edu/newsroom/releases/2013/Q3/purdue-trustees-establish-metrics-for-daniels-at-risk-pay.html\n'
p884
aS'http://www.purdue.edu/newsroom/releases/2013/Q3/purdue-trustees-ok-wang-hall-leases.html\n'
p885
aS'http://www.purdue.edu/newsroom/releases/2013/Q4/purdue-university-development,-investment-offices-to-transfer-to-purdue-research-foundation.html\n'
p886
aS'http://www.purdue.edu/newsroom/releases/2013/Q4/purdue-university-libraries-launches-new,-open-access-resource-website.html\n'
p887
aS'http://www.purdue.edu/newsroom/releases/2013/Q4/purdue-university-libraries-to-celebrate-gis-day-with-activities.html\n'
p888
aS'http://www.purdue.edu/newsroom/releases/2013/Q1/purdue-university-student-health-center-selects-director.html\n'
p889
aS'http://www.purdue.edu/newsroom/releases/2013/Q2/purdue-veterinary-medicine-launches-poultry-medicine-residency.html\n'
p890
aS'http://www.purdue.edu/newsroom/releases/2013/Q2/purdue-veterinary-medicine-professor-receives-grant-to-research-new-bladder-cancer-therapy-to-help-dogs,-people.html\n'
p891
aS'http://www.purdue.edu/newsroom/releases/2013/Q3/purdue-wine-grape-series-delves-into-issue-of-herbicide-drift.html\n'
p892
aS'http://www.purdue.edu/newsroom/releases/2013/Q1/purdues-2012-highlights-captured-on-video.html\n'
p893
aS'http://www.purdue.edu/newsroom/releases/2013/Q3/purdues-black-cultural-center-to-commemorate-50th-anniversary-of-march-on-washington.html\n'
p894
aS'http://www.purdue.edu/newsroom/releases/2013/Q1/purdues-brian-lamb-school-to-benefit-from-gift-valued-at-3-million.html\n'
p895
aS'http://www.purdue.edu/newsroom/releases/2013/Q1/purdues-emerging-innovations-fund-invests-250,000-in-two-life-sciences-companies.html\n'
p896
aS'http://www.purdue.edu/newsroom/releases/2013/Q3/purdues-emerging-innovations-fund-sets-aug.-31-application-deadline.html\n'
p897
aS'http://www.purdue.edu/newsroom/releases/2013/Q2/purdues-incoming-class-projected-to-raise-academic-profile.html\n'
p898
aS'http://www.purdue.edu/newsroom/releases/2012/Q4/purdues-international-student-population-ranks-2nd-for-public-schools.html\n'
p899
aS'http://www.purdue.edu/newsroom/releases/2012/Q3/purdues-latino-cultural-center-to-celebrate-10th-anniversary.html\n'
p900
aS'http://www.purdue.edu/newsroom/releases/2013/Q4/purdues-latino-cultural-center-to-celebrate-d\xc3\xada-de-los-muertos.html\n'
p901
aS'http://www.purdue.edu/newsroom/releases/2013/Q2/purdues-low-to-participate-in-ibj-panel-discussion-on-outlook-for-indianas-life-sciences-industry.html\n'
p902
aS'http://www.purdue.edu/newsroom/releases/2013/Q4/purdues-new-herrick-labs-building-open-for-business.html\n'
p903
aS'http://www.purdue.edu/newsroom/releases/2013/Q3/purdues-spafford-to-receive-two-top-honors-in-cybersecurity.html\n'
p904
aS'http://www.purdue.edu/newsroom/releases/2013/Q2/purdues-top-students-to-be-honored-at-spring-commencement.html\n'
p905
aS'http://www.purdue.edu/newsroom/releases/2013/Q2/purdues-west-lafayette-commencement-to-be-shown-live-on-tv,-webcast.html\n'
p906
aS'http://www.purdue.edu/newsroom/releases/2013/Q3/radiant-fried-chicken-patties-versus-traditional-split-decision.html\n'
p907
aS'http://www.purdue.edu/newsroom/releases/2013/Q1/rche,-ourhealth-partner-on-research-project-to-enhance-care-delivery.html\n'
p908
aS'http://www.purdue.edu/newsroom/releases/2013/Q4/reading-with-indianas-poet-laureate-karen-kovacik.html\n'
p909
aS'http://www.purdue.edu/newsroom/releases/2013/Q2/registration-opens-for-fifth-annual-indiana-innovation-showcase-to-connect-high-tech-startups-with-investment-opportunities.html\n'
p910
aS'http://www.purdue.edu/newsroom/releases/2013/Q4/registration-underway-for-27th-annual-purdue-business-plan-competition.html\n'
p911
aS'http://www.purdue.edu/newsroom/purduetoday/releases/2013/Q4/reminder-2014-benefit-sessions-to-be-offered-in-loeb-playhouse.html\n'
p912
aS'http://www.purdue.edu/newsroom/releases/2013/Q2/report-sharing-individual-health-information-could-improve-care-and-reduce-costs-for-all.html\n'
p913
aS'http://www.purdue.edu/newsroom/purduetoday/releases/2013/Q3/required-health-care-reform-notice-to-describe-health-insurance-exchanges.html\n'
p914
aS'http://www.purdue.edu/newsroom/releases/2013/Q3/research-aims-to-reduce-security-threats-from-explosives.html\n'
p915
aS'http://www.purdue.edu/newsroom/releases/2013/Q3/research-could-lead-to-better-tasting-tomatoes,-other-benefits.html\n'
p916
aS'http://www.purdue.edu/newsroom/releases/2013/Q2/research-reveals-how-antibodies-neutralize-mosquito-borne-virus.html\n'
p917
aS'http://www.purdue.edu/newsroom/releases/2013/Q3/research-yields-first-detailed-view-of-morphing-parkinsons-protein.html\n'
p918
aS'http://www.purdue.edu/newsroom/releases/2013/Q3/researcher-finds-way-to-convert-blood-cells-into-autoimmune-disease-treatment.html\n'
p919
aS'http://www.purdue.edu/newsroom/releases/2013/Q3/researchers-discover-genes-resistant-to-soybean-pathogen.html\n'
p920
aS'http://www.purdue.edu/newsroom/releases/2013/Q3/researchers-to-study-lake-michigan-currents-with-scientific-vessel.html\n'
p921
aS'http://www.purdue.edu/newsroom/purduetoday/releases/2013/Q3/retirement-appointments,-workshops-available-from-fidelity.html\n'
p922
aS'http://www.purdue.edu/newsroom/purduetoday/releases/2013/Q3/road-to-retirement-offered-today-for-employees-age-55-and-older.html\n'
p923
aS'http://www.purdue.edu/newsroom/releases/2013/Q3/rosa-clemente-to-give-annual-latino-heritage-month-keynote-address.html\n'
p924
aS'http://www.purdue.edu/newsroom/releases/2012/Q4/sands-to-graduates-boilermakers-have-a-history-of-going-one-brick-higher.html\n'
p925
aS'http://www.purdue.edu/newsroom/releases/2013/Q4/schoolhouse-partners-publishes-directory-of-grants-for-community-and-economic-development-groups.html\n'
p926
aS'http://www.purdue.edu/newsroom/releases/2013/Q3/science-is-harnessing-shock-waves-to-create-new-materials.html\n'
p927
aS'http://www.purdue.edu/newsroom/releases/2013/Q4/science-on-tap-talk-to-delve-into-the-wild-world-of-plant-genetics.html\n'
p928
aS'http://www.purdue.edu/newsroom/releases/2013/Q3/sds,-brown-stem-rot-showing-up-in-indiana-soybeans.html\n'
p929
aS'http://www.purdue.edu/newsroom/releases/2013/Q1/search-committee-named-for-honors-college-dean.html\n'
p930
aS'http://www.purdue.edu/newsroom/releases/2013/Q4/sears-lecture-series-to-present-madeleine-albright-at-purdue.html\n'
p931
aS'http://www.purdue.edu/newsroom/releases/2013/Q2/seminar-on-protecting-digital-technology-intellectual-property-set-for-may-20.html\n'
p932
aS'http://www.purdue.edu/newsroom/purduetoday/releases/2013/Q3/sessions-to-explain-2014-medical-plan-options,-review-background.html\n'
p933
aS'http://www.purdue.edu/newsroom/releases/2013/Q3/seven-tips-to-help-identify-a-fraudulent-phishing-email.html\n'
p934
aS'http://www.purdue.edu/newsroom/releases/2013/Q1/several-purdue-events-planned-to-celebrate-martin-luther-king-jr..html\n'
p935
aS'http://www.purdue.edu/newsroom/releases/2013/Q1/several-purdue-events-planned-to-celebrate-martin-luther-king-jr..html\n'
p936
aS'http://www.purdue.edu/newsroom/releases/2012/Q3/signature-of-long-sought-particle-that-could-revolutionize-quantum-computing-seen-by-purdue-physicist.html\n'
p937
aS'http://www.purdue.edu/newsroom/releases/2013/Q3/simulations-aiding-study-of-earthquake-dampers-for-structures.html\n'
p938
aS'http://www.purdue.edu/newsroom/releases/2012/Q3/skip-jackson-dog-jog-brings-canines-to-campus-sept.-22.html\n'
p939
aS'http://www.purdue.edu/newsroom/releases/2013/Q1/smartphone-apps-new-function-provides-daily-variable-rate-recommendations-to-optimize-corn-yield.html\n'
p940
aS'http://www.purdue.edu/newsroom/releases/2012/Q3/software-developer,-entrepreneur-to-speak-about-micro-enterprises-it-needs-aug.-14.html\n'
p941
aS'http://www.purdue.edu/newsroom/releases/2013/Q1/soul-food-dinner-and-film-screening-cap-off-black-history-month-at-purdue.html\n'
p942
aS'http://www.purdue.edu/newsroom/releases/2013/Q2/south-shore-clean-cities-to-promote-clean-diesel-at-upcoming-events.html\n'
p943
aS'http://www.purdue.edu/newsroom/releases/2013/Q3/soybean-producers-should-id-foliar-diseases,-consider-management-options.html\n'
p944
aS'http://www.purdue.edu/newsroom/releases/2013/Q2/speech-clinicians-get-tools-to-help-children-who-stutter-deal-with-bullying.html\n'
p945
aS'http://www.purdue.edu/newsroom/releases/2013/Q3/speech-expert-michael-j.-fox-show-could-speak-up-for-parkinsons-patients,-families.html\n'
p946
aS'http://www.purdue.edu/newsroom/releases/2013/Q4/spensa-technologies-wins-2013-biocrossroads-new-venture-competition.html\n'
p947
aS'http://www.purdue.edu/newsroom/releases/2013/Q3/startup-services,-collaboration-opportunities-offered-at-upcoming-purdue-foundry-open-house.html\n'
p948
aS'http://www.purdue.edu/newsroom/releases/2012/Q3/state-fair-is-showtime-for-purdue-college-of-veterinary-medicine.html\n'
p949
aS'http://www.purdue.edu/newsroom/purduetoday/releases/2013/Q3/still-time-to-complete-approved-tobacco-cessation-program-to-avoid-2014-additional-medical-premium.html\n'
p950
aS'http://www.purdue.edu/newsroom/releases/2013/Q3/student-entrepreneurship-hub-opens,-assists-in-business-development.html\n'
p951
aS'http://www.purdue.edu/newsroom/releases/2012/Q4/student-group-hopes-community-will-help-throw-in-the-towel.html\n'
p952
aS'http://www.purdue.edu/newsroom/releases/2012/Q4/student-organizations-to-be-deactivated-oct.-15.html\n'
p953
aS'http://www.purdue.edu/newsroom/releases/2012/Q4/student-veteran-groups-win-awards,-set-national-examples.html\n'
p954
aS'http://www.purdue.edu/newsroom/releases/2012/Q3/students-ability-to-connect-to-campus-events,-activities-gets-easier.html\n'
p955
aS'http://www.purdue.edu/newsroom/releases/2012/Q3/students-prefer-apps-to-the-web-when-using-smartphones.html\n'
p956
aS'http://www.purdue.edu/newsroom/releases/2013/Q2/students-with-disabilities-put-adaptive-lab-resources-to-test-during-summer-program.html\n'
p957
aS'http://www.purdue.edu/newsroom/releases/2013/Q1/study-chimpanzees-eat-smart-when-it-comes-to-mealtime.html\n'
p958
aS'http://www.purdue.edu/newsroom/releases/2013/Q3/study-genome-duplication-aids-plants-survival-in-saline-soils.html\n'
p959
aS'http://www.purdue.edu/newsroom/releases/2013/Q2/study-immigrants-who-live,-work-together-less-apt-to-learn-english.html\n'
p960
aS'http://www.purdue.edu/newsroom/releases/2013/Q4/study-is-moms-favorite-child-always-the-same.html\n'
p961
aS'http://www.purdue.edu/newsroom/releases/2013/Q4/study-older-volunteers-in-better-physical-health-than-younger-peers.html\n'
p962
aS'http://www.purdue.edu/newsroom/releases/2013/Q3/study-online-tools-accelerating-earthquake-engineering-progress.html\n'
p963
aS'http://www.purdue.edu/newsroom/releases/2013/Q3/study-teens-smoking-influenced-by-older-siblings,-parents-lifelong-smoking-habits.html\n'
p964
aS'http://www.purdue.edu/newsroom/releases/2013/Q4/study-those-briefly-ostracized,-recover-more-quickly-if-they-previously-were-given-focused-attention-training.html\n'
p965
aS'http://www.purdue.edu/newsroom/releases/2013/Q3/study-when-dads-play-favorites-the-kids-know.html\n'
p966
aS'http://www.purdue.edu/newsroom/releases/2013/Q2/super-resolution-microscope-possible-for-nanostructures.html\n'
p967
aS'http://www.purdue.edu/newsroom/releases/2013/Q1/supersonic-pingpong-bazooka-blasts-balls-at-mach-1.23.html\n'
p968
aS'http://www.purdue.edu/newsroom/releases/2013/Q3/swift-fuels-llc-opens-aviation-gasoline-blending-facility.html\n'
p969
aS'http://www.purdue.edu/newsroom/releases/2013/Q3/swift-fuels-to-hold-ceremonies-sept.-13-for-fuel-blending-facility-and-renewable-fuels-pilot-plant.html\n'
p970
aS'http://www.purdue.edu/newsroom/releases/2013/Q2/symposium-led-by-purdue,-s.-korea-teams-to-focus-on-advancements-in-organ-on-a-chip-research.html\n'
p971
aS'http://www.purdue.edu/newsroom/releases/2013/Q2/symposium-led-by-purdue,-s.-korea-teams-to-focus-on-advancements-in-organ-on-a-chip-research.html\n'
p972
aS'http://www.purdue.edu/newsroom/releases/2013/Q2/symposium-led-by-purdue,-s.-korea-teams-to-focus-on-advancements-in-organ-on-a-chip-research.html\n'
p973
aS'http://www.purdue.edu/newsroom/releases/2013/Q4/sypris-expands-indiana-based-research-center.html\n'
p974
aS'http://www.purdue.edu/newsroom/releases/2013/Q2/team-building-mixers-to-be-held-april-9-and-16-for-new-purdue-venture-creation-class.html\n'
p975
aS'http://www.purdue.edu/newsroom/releases/2013/Q2/temporal-cloaking-could-bring-more-secure-optical-communications.html\n'
p976
aS'http://www.purdue.edu/newsroom/releases/2013/Q2/testing-method-promising-for-spinal-cord-injuries,-multiple-sclerosis.html\n'
p977
aS'http://www.purdue.edu/newsroom/releases/2013/Q3/textbooks-cost-too-much-startup-offers-alternative.html\n'
p978
aS'http://www.purdue.edu/newsroom/releases/2013/Q4/the-pain-lingers-for-white-teen-girls-who-are-told-they-are-too-fat.html\n'
p979
aS'http://www.purdue.edu/newsroom/releases/2013/Q4/theory-of-higgs-field-earns-nobel-prize,-purdue-physicists-part-of-experiment-that-proved-it.html\n'
p980
aS'http://www.purdue.edu/newsroom/releases/2012/Q4/this-purdue-team-is-super---at-computing.html\n'
p981
aS'http://www.purdue.edu/newsroom/purduetoday/releases/2013/Q3/time-to-complete-approved-tobacco-cessation-program-to-avoid-2014-additional-medical-premium.html\n'
p982
aS'http://www.purdue.edu/newsroom/releases/2013/Q2/tornado,-severe-weather-forecasting-expert-available.html\n'
p983
aS'http://www.purdue.edu/newsroom/releases/2013/Q1/traffic-changes-announced-for-wang-hall-construction-site.html\n'
p984
aS'http://www.purdue.edu/newsroom/releases/2013/Q3/trask-innovation-fund-application-deadline-set-for-sept.-13.html\n'
p985
aS'http://www.purdue.edu/newsroom/releases/2013/Q3/trees-of-the-midwest-now-offered-in-purdue-extension-app.html\n'
p986
aS'http://www.purdue.edu/newsroom/releases/2012/Q4/trustees-approve-2013-14-residence-hall-rate-plans.html\n'
p987
aS'http://www.purdue.edu/newsroom/releases/2013/Q3/trustees-approve-several-changes-at-purdue-calumet.html\n'
p988
aS'http://www.purdue.edu/newsroom/releases/2013/Q3/trustees-committee-reviews-2014-medical-plans,-premiums.html\n'
p989
aS'http://www.purdue.edu/newsroom/releases/2013/Q2/trustees-ratify-appointments,-approve-academic-program,-ok-degree-name-change.html\n'
p990
aS'http://www.purdue.edu/newsroom/releases/2012/Q3/trustees-ratify-appointments,-approve-new-degree-programs.html\n'
p991
aS'http://www.purdue.edu/newsroom/releases/2013/Q3/trustees-ratify-appointments,-approve-resolution.html\n'
p992
aS'http://www.purdue.edu/newsroom/releases/2013/Q1/trustees-ratify-named-professors,-approve-academic-programs,-resolutions.html\n'
p993
aS'http://www.purdue.edu/newsroom/purduetoday/releases/2013/Q4/truven-informed-enrollment-tool-available-now.html\n'
p994
aS'http://www.purdue.edu/newsroom/purduetoday/releases/2013/Q4/tuesdays-benefit-presentation-to-stream-live-over-web.html\n'
p995
aS'http://www.purdue.edu/newsroom/releases/2012/Q4/tweet-while-you-speak-with-purdues-backdraft-ipad-app.html\n'
p996
aS'http://www.purdue.edu/newsroom/releases/2013/Q1/tymora-analytical-operations-receives-500,000-nsf-phase-ii-grant-for-drug-development-technology.html\n'
p997
aS'http://www.purdue.edu/newsroom/releases/2013/Q3/u.s.-navy-awards-indiana-microelectronics,-purdue-500,000-to-develop-reconfigurable-microwave-filter.html\n'
p998
aS'http://www.purdue.edu/newsroom/releases/2012/Q1/u.s.news-ranks-purdues-graduate-programs-among-nations-best.html\n'
p999
aS'http://www.purdue.edu/newsroom/releases/2013/Q3/undergrads-get-engineering-jobs-at-purdue-in-new-pilot-program.html\n'
p1000
aS'http://www.purdue.edu/newsroom/releases/2013/Q1/understanding-termite-digestion-could-help-biofuels,-insect-control.html\n'
p1001
aS'http://www.purdue.edu/newsroom/releases/2013/Q3/usda-predicts-bin-busting-corn,-soybean-yields.html\n'
p1002
aS'http://www.purdue.edu/newsroom/releases/2013/Q3/vegetable-crops-research-will-be-highlight-at-twilight.html\n'
p1003
aS'http://www.purdue.edu/newsroom/releases/2013/Q1/veterinarian-blazes-a-path-to-the-nations-oldest-pet-dogs-to-advance-research-on-successful-aging.html\n'
p1004
aS'http://www.purdue.edu/newsroom/releases/2013/Q2/wade-steffey-memorial-scholarships-awarded-to-2-indiana-students.html\n'
p1005
aS'http://www.purdue.edu/newsroom/releases/2013/Q3/wait-and-see-for-preschoolers-who-stutter-not-best-approach.html\n'
p1006
aS'http://www.purdue.edu/newsroom/releases/2013/Q3/wasatch-photonics-hires-principal-scientist-to-develop-imaging-technology.html\n'
p1007
aS'http://www.purdue.edu/newsroom/releases/2013/Q3/wasatch-photonics-to-attend-the-innovation-showcase,-launch-new-oct-imaging-system.html\n'
p1008
aS'http://www.purdue.edu/newsroom/releases/2013/Q4/wbaa-begins-fall-member-drive-with-10,000-power-hour-matching-gift-to-encourage-membership.html\n'
p1009
aS'http://www.purdue.edu/newsroom/releases/2013/Q2/webinar-to-help-arthritis-sufferers-keep-their-gardens-growing.html\n'
p1010
aS'http://www.purdue.edu/newsroom/releases/2013/Q4/webinars-on-fruit,-vegetable-food-safety-set-for-november.html\n'
p1011
aS'http://www.purdue.edu/newsroom/releases/2013/Q3/website-helps-instructors-write-motivating-messages.html\n'
p1012
aS'http://www.purdue.edu/newsroom/releases/2013/Q4/weed-scientist-control-poison-hemlock-in-the-fall.html\n'
p1013
aS'http://www.purdue.edu/newsroom/releases/2013/Q3/weekly-liberal-arts-series-highlights-alumni.html\n'
p1014
aS'http://www.purdue.edu/newsroom/releases/2013/Q4/weird-al-yankovic-to-host-25th-anniversary-screening-of-uhf.html\n'
p1015
aS'http://www.purdue.edu/newsroom/releases/2013/Q3/wet-spring,-summer-raise-mold-concerns-for-homeowners.html\n'
p1016
aS'http://www.purdue.edu/newsroom/releases/2013/Q4/women-in-engineering-to-hold-open-house-for-grades-k-8.html\n'
p1017
aS'http://www.purdue.edu/newsroom/releases/2013/Q3/womens-contributions-to-agriculture-lauded-at-state-fair.html\n'
p1018
aS'http://www.purdue.edu/newsroom/releases/2013/Q4/workshop-series-to-offer-updates-on-legal,-tax-and-estate-issues.html\n'
p1019
aS'http://www.purdue.edu/newsroom/releases/2013/Q3/workshop-to-offer-essentials-of-wine-evaluation,-tasting-room-management.html\n'
p1020
aS'http://www.purdue.edu/newsroom/releases/2013/Q4/writers-harvest-supports-local-food-bank.html\n'
p1021
aS'http://www.purdue.edu/newsroom/releases/2013/Q1/yeast-study-yields-potential-for-new-cholesterol,-anti-fungal-drugs.html\n'
p1022
aS'http://www.purdue.edu/newsroom/releases/2013/Q4/yo-yo-ma,-kathryn-stott-to-perform-in-sold-out-purdue-show.html\n'
p1023
aS'http://www.purdue.edu/newsroom/releases/2012/Q4/you-can-avoid-being-scammed-in-donating-to-hurricane-sandy-victims.html\n'
p1024
a.