(lp0
S'0.006*student + 0.005*engin + 0.004*agricultur + 0.004*program + 0.003*plant + 0.003*school + 0.003*manag + 0.003*rank + 0.003*research + 0.003*graduat'
p1
aS'0.003*breast + 0.003*swift + 0.003*regenstrief + 0.002*bortoletto + 0.002*higg + 0.002*wineri + 0.002*rna + 0.002*egg + 0.002*auffart + 0.002*wine'
p2
aS'0.002*purdueboard + 0.002*charcoal + 0.002*avron + 0.002*golf + 0.002*darnel + 0.002*twirl + 0.002*twin + 0.002*campus + 0.002*grimm + 0.001*expo'
p3
aS'0.003*goldberg + 0.003*rube + 0.003*hay + 0.002*teacher + 0.002*badg + 0.002*lamb + 0.002*hampton + 0.002*buoy + 0.002*sled + 0.002*cee'
p4
aS'0.004*sigma + 0.004*mep + 0.003*manufactur + 0.003*lechtenberg + 0.002*telework + 0.002*constitut + 0.002*lean + 0.002*tap + 0.002*rdova + 0.002*firework'
p5
aS'0.004*clean + 0.003*measur + 0.003*playhous + 0.002*sensor + 0.002*devic + 0.002*loeb + 0.002*directori + 0.002*nuclear + 0.002*schoolhous + 0.002*park'
p6
aS'0.003*webinar + 0.002*pumpkin + 0.002*unger + 0.002*porterfield + 0.002*text + 0.002*dryness + 0.002*asteroid + 0.002*surf + 0.002*bertino + 0.001*mow'
p7
aS'0.002*greet + 0.002*band + 0.002*russian + 0.002*glyphos + 0.002*myplat + 0.002*race + 0.002*ebv + 0.002*agrabl + 0.001*13th + 0.001*exum'
p8
aS'0.010*drought + 0.005*corn + 0.004*health + 0.004*state + 0.004*center + 0.004*indiana + 0.003*counti + 0.003*30 + 0.003*field + 0.003*sept'
p9
aS'0.003*enterscap + 0.002*disgust + 0.002*utilityrecon + 0.002*india + 0.002*polic + 0.002*listeria + 0.001*rad + 0.001*metal + 0.001*pedestrian + 0.001*bicycl'
p10
aS'0.003*shore + 0.003*vehicl + 0.002*retire + 0.002*citi + 0.002*vre + 0.002*neil + 0.002*leli + 0.002*academi + 0.002*entrepreneurship + 0.002*trimest'
p11
aS'0.002*fiber + 0.002*fire + 0.002*gym + 0.001*traffic + 0.001*courthous + 0.001*eye + 0.001*brazil + 0.001*rdova + 0.001*spirit + 0.001*hydrogen'
p12
aS'0.005*event + 0.004*global + 0.004*food + 0.004*tree + 0.003*game + 0.003*book + 0.003*skill + 0.003*polit + 0.003*physic + 0.003*patient'
p13
aS'0.002*recreat + 0.002*photovolta + 0.002*robot + 0.002*hispan + 0.002*gs300 + 0.002*polymac + 0.001*simul + 0.001*sport + 0.001*cla + 0.001*particl'
p14
aS'0.002*nematod + 0.002*tymora + 0.002*statu + 0.002*polic + 0.002*essen + 0.002*feinberg + 0.001*iliuk + 0.001*iron + 0.001*downey + 0.001*target'
p15
aS'0.003*martinez + 0.002*wildlif + 0.002*grantselect + 0.002*concert + 0.002*sorghum + 0.001*comment + 0.001*nfl + 0.001*forum + 0.001*dispar + 0.001*fruit'
p16
aS'0.006*park + 0.006*technolog + 0.006*cancer + 0.006*busi + 0.005*scienc + 0.005*compani + 0.004*campus + 0.004*award + 0.004*medicin + 0.004*space'
p17
aS'0.002*nitrat + 0.002*frankenberg + 0.002*beverag + 0.002*usa + 0.002*pal + 0.002*alcohol + 0.002*micro + 0.002*calori + 0.002*spark + 0.002*glucos'
p18
aS'0.002*mem + 0.002*emc + 0.002*ddgs + 0.002*ziaie + 0.002*nanotechnolog + 0.002*blom + 0.002*tap + 0.002*prefer + 0.002*mother + 0.001*graviti'
p19
aS'0.002*volunt + 0.002*striga + 0.002*hub + 0.002*siren + 0.002*yamamoto + 0.002*steffey + 0.001*govindaraju + 0.001*semest + 0.001*civil + 0.001*sorghum'
p20
a.