(lp0
S'0.004*clean + 0.003*gas + 0.003*vehicl + 0.002*shore + 0.002*spensa + 0.002*emiss + 0.002*sypri + 0.002*bicycl + 0.002*polic + 0.002*diesel'
p1
aS'0.002*farmland + 0.002*choreograph + 0.002*ostrac + 0.001*mem + 0.001*nematod + 0.001*easement + 0.001*mar + 0.001*reject + 0.001*nee + 0.001*puls'
p2
aS'0.006*convoc + 0.003*feinberg + 0.003*ticket + 0.002*sigma + 0.002*sale + 0.002*album + 0.002*iu + 0.002*kane + 0.002*genr + 0.002*elliott'
p3
aS'0.006*wine + 0.002*leas + 0.002*fungicid + 0.002*hors + 0.002*potter + 0.002*grape + 0.002*pot + 0.001*indi + 0.001*oxal + 0.001*jdgortat'
p4
aS'0.002*eee + 0.002*flight + 0.002*rust + 0.002*martinez + 0.001*ywca + 0.001*women + 0.001*chappl + 0.001*poetri + 0.001*sutherland + 0.001*whittak'
p5
aS'0.002*ash + 0.002*violenc + 0.001*librari + 0.001*siren + 0.001*herrick + 0.001*immigr + 0.001*drink + 0.001*rotc + 0.001*cattl + 0.001*victim'
p6
aS'0.002*orcid + 0.001*fire + 0.001*hp + 0.001*mccartney + 0.001*prix + 0.001*klan + 0.001*wound + 0.001*festiv + 0.001*golf + 0.001*colloquium'
p7
aS'0.003*graze + 0.003*greet + 0.002*pastur + 0.002*stalk + 0.001*rot + 0.001*volunt + 0.001*exum + 0.001*pork + 0.001*neighborhood + 0.001*ddgs'
p8
aS'0.003*swift + 0.003*fuel + 0.003*war + 0.002*aviat + 0.002*gasolin + 0.002*blend + 0.001*ethanol + 0.001*janney + 0.001*truven + 0.001*wineri'
p9
aS'0.004*morgan + 0.004*burton + 0.003*fiber + 0.003*breast + 0.003*grant + 0.003*women + 0.002*librari + 0.002*whitney + 0.002*supercomput + 0.002*foundri'
p10
aS'0.002*glyphos + 0.002*ebv + 0.002*badg + 0.002*bear + 0.001*wbaa + 0.001*comic + 0.001*band + 0.001*stutter + 0.001*ralli + 0.001*shaver'
p11
aS'0.004*enterscap + 0.002*emc + 0.002*micro + 0.002*turf + 0.002*shelter + 0.002*goldberg + 0.002*rube + 0.002*utilityrecon + 0.002*patton + 0.001*fox'
p12
aS'0.003*emerg + 0.003*ejeta + 0.002*stutter + 0.002*race + 0.002*loeb + 0.002*playhous + 0.002*veterinari + 0.002*tymora + 0.002*dog + 0.002*commenc'
p13
aS'0.004*student + 0.003*engin + 0.003*research + 0.003*technolog + 0.003*award + 0.003*indiana + 0.002*program + 0.002*agricultur + 0.002*scienc + 0.002*center'
p14
aS'0.003*particl + 0.003*higg + 0.002*bug + 0.002*sleep + 0.002*bortoletto + 0.002*fafsa + 0.002*majorana + 0.002*shipsey + 0.002*cms + 0.001*boson'
p15
aS'0.011*drought + 0.008*crop + 0.007*corn + 0.006*soybean + 0.005*plant + 0.005*price + 0.005*water + 0.004*grain + 0.004*farmer + 0.004*yield'
p16
aS'0.003*vre + 0.002*leli + 0.002*parkinson + 0.002*alcohol + 0.002*huber + 0.002*latino + 0.002*beverag + 0.002*vaccin + 0.001*grief + 0.001*calori'
p17
aS'0.004*disast + 0.004*aldrich + 0.003*hurrican + 0.003*ear + 0.002*asteroid + 0.002*katrina + 0.002*fli + 0.002*rebuild + 0.002*recoveri + 0.002*aflatoxin'
p18
aS'0.006*armstrong + 0.004*neil + 0.002*chancellor + 0.002*apollo + 0.001*speaker + 0.001*moon + 0.001*webcast + 0.001*photovolta + 0.001*pete + 0.001*ferruzzi'
p19
aS'0.002*borlaug + 0.002*homecom + 0.002*patti + 0.002*queen + 0.002*king + 0.001*court + 0.001*cloak + 0.001*stamp + 0.001*atrazin + 0.001*cn'
p20
a.